

HI-TECH Software PIC LITE Macro Assembler V9.80 build 6738 
                                                                                               Thu Jun 28 10:39:21 2012

HI-TECH Software Omniscient Code Generator (Lite mode) build 6738
     1  0000                     opt subtitle "HI-TECH Software Omniscient Code Generator (Lite mode) build 6738"
     2                           
     3                           opt pagewidth 120
     4                           
     5                           	opt lm
     6                           
     7                           	processor	16F877A
     8                           clrc	macro
     9                           	bcf	3,0
    10  0000                     	endm
    11                           clrz	macro
    12                           	bcf	3,2
    13  0000                     	endm
    14                           setc	macro
    15                           	bsf	3,0
    16  0000                     	endm
    17                           setz	macro
    18                           	bsf	3,2
    19  0000                     	endm
    20                           skipc	macro
    21                           	btfss	3,0
    22  0000                     	endm
    23                           skipz	macro
    24                           	btfss	3,2
    25  0000                     	endm
    26                           skipnc	macro
    27                           	btfsc	3,0
    28  0000                     	endm
    29                           skipnz	macro
    30                           	btfsc	3,2
    31  0000                     	endm
    32  0000                     indf	equ	0
    33  0000                     indf0	equ	0
    34  0002                     pc	equ	2
    35  0002                     pcl	equ	2
    36  0003                     status	equ	3
    37  0004                     fsr	equ	4
    38  0004                     fsr0	equ	4
    39  0001                     c	equ	1
    40  0000                     z	equ	0
    41  000A                     pclath	equ	10
    42                           # 13 "PR17B.c"
    43                           	psect config,class=CONFIG,delta=2 ;#
    44                           # 13 "PR17B.c"
    45  2007  3F3A               	dw 0x3F3A ;#
    46                           	FNCALL	_main,_Init
    47                           	FNCALL	_main,_lcd_clr
    48                           	FNCALL	_main,_lcd_goto
    49                           	FNCALL	_main,_send_string
    50                           	FNCALL	_main,_Stand
    51                           	FNCALL	_main,_Erase
    52                           	FNCALL	_main,_Spi
    53                           	FNCALL	_Spi,_uc_send_receive_spi
    54                           	FNCALL	_Spi,_tmr_delay
    55                           	FNCALL	_Spi,_lcd_clr
    56                           	FNCALL	_Spi,_lcd_goto
    57                           	FNCALL	_Spi,_send_string
    58                           	FNCALL	_Spi,_Record
    59                           	FNCALL	_Spi,_Play
    60                           	FNCALL	_Record,_lcd_clr
    61                           	FNCALL	_Record,_lcd_goto
    62                           	FNCALL	_Record,_send_string
    63                           	FNCALL	_Record,_mic
    64                           	FNCALL	_Record,_analog
    65                           	FNCALL	_analog,_uc_send_receive_spi
    66                           	FNCALL	_analog,_tmr_delay
    67                           	FNCALL	_analog,_location
    68                           	FNCALL	_mic,_uc_send_receive_spi
    69                           	FNCALL	_mic,_tmr_delay
    70                           	FNCALL	_mic,_location
    71                           	FNCALL	_Stand,_uc_send_receive_spi
    72                           	FNCALL	_Stand,_lcd_clr
    73                           	FNCALL	_Stand,_lcd_goto
    74                           	FNCALL	_Stand,_send_string
    75                           	FNCALL	_Stand,_Play_s
    76                           	FNCALL	_Stand,_Option
    77                           	FNCALL	_Stand,_Forward
    78                           	FNCALL	_location,_lcd_clr
    79                           	FNCALL	_location,_lcd_goto
    80                           	FNCALL	_location,_send_string
    81                           	FNCALL	_location,_message2r
    82                           	FNCALL	_location,_message1r
    83                           	FNCALL	_Option,_lcd_clr
    84                           	FNCALL	_Option,_lcd_goto
    85                           	FNCALL	_Option,_send_string
    86                           	FNCALL	_Option,_Record_s
    87                           	FNCALL	_Play,_lcd_clr
    88                           	FNCALL	_Play,_lcd_goto
    89                           	FNCALL	_Play,_send_string
    90                           	FNCALL	_Play,_message2p
    91                           	FNCALL	_Play,_message1p
    92                           	FNCALL	_Erase,_lcd_clr
    93                           	FNCALL	_Erase,_lcd_goto
    94                           	FNCALL	_Erase,_send_string
    95                           	FNCALL	_Erase,_g_erase
    96                           	FNCALL	_Erase,_erase
    97                           	FNCALL	_erase,_uc_send_receive_spi
    98                           	FNCALL	_erase,_tmr_delay
    99                           	FNCALL	_erase,_lcd_clr
   100                           	FNCALL	_erase,_lcd_goto
   101                           	FNCALL	_erase,_send_string
   102                           	FNCALL	_g_erase,_uc_send_receive_spi
   103                           	FNCALL	_g_erase,_tmr_delay
   104                           	FNCALL	_g_erase,_lcd_clr
   105                           	FNCALL	_g_erase,_lcd_goto
   106                           	FNCALL	_g_erase,_send_string
   107                           	FNCALL	_Record_s,_lcd_clr
   108                           	FNCALL	_Record_s,_lcd_goto
   109                           	FNCALL	_Record_s,_send_string
   110                           	FNCALL	_message1r,_uc_send_receive_spi
   111                           	FNCALL	_message1r,_lcd_clr
   112                           	FNCALL	_message1r,_lcd_goto
   113                           	FNCALL	_message1r,_send_string
   114                           	FNCALL	_message1r,_tmr_delay
   115                           	FNCALL	_message2r,_uc_send_receive_spi
   116                           	FNCALL	_message2r,_lcd_clr
   117                           	FNCALL	_message2r,_lcd_goto
   118                           	FNCALL	_message2r,_send_string
   119                           	FNCALL	_message2r,_tmr_delay
   120                           	FNCALL	_message1p,_uc_send_receive_spi
   121                           	FNCALL	_message1p,_lcd_clr
   122                           	FNCALL	_message1p,_lcd_goto
   123                           	FNCALL	_message1p,_send_string
   124                           	FNCALL	_message1p,_tmr_delay
   125                           	FNCALL	_message2p,_uc_send_receive_spi
   126                           	FNCALL	_message2p,_lcd_clr
   127                           	FNCALL	_message2p,_lcd_goto
   128                           	FNCALL	_message2p,_send_string
   129                           	FNCALL	_message2p,_tmr_delay
   130                           	FNCALL	_Forward,_lcd_goto
   131                           	FNCALL	_Forward,_send_string
   132                           	FNCALL	_Forward,_tmr_delay
   133                           	FNCALL	_Play_s,_lcd_goto
   134                           	FNCALL	_Play_s,_send_string
   135                           	FNCALL	_Play_s,_tmr_delay
   136                           	FNCALL	_send_string,_send_char
   137                           	FNCALL	_lcd_goto,_send_config
   138                           	FNCALL	_lcd_clr,_send_config
   139                           	FNCALL	_lcd_clr,_delay
   140                           	FNCALL	_Init,_send_config
   141                           	FNCALL	_Init,_spi_initialize
   142                           	FNCALL	_Init,_uc_send_receive_spi
   143                           	FNCALL	_Init,_tmr_delay
   144                           	FNCALL	_send_char,_delay
   145                           	FNCALL	_send_char,_e_pulse
   146                           	FNCALL	_send_config,_delay
   147                           	FNCALL	_send_config,_e_pulse
   148                           	FNCALL	_e_pulse,_delay
   149                           	FNROOT	_main
   150                           	global	_mode
   151                           psect	idataBANK0,class=CODE,space=0,delta=2
   152                           global __pidataBANK0
   153  0DA2                     __pidataBANK0:
   154                           	file	"PR17B.c"
   155                           	line	70
   156                           
   157                           ;initializer for _mode
   158  0DA2  341F               	retlw	low(_SPI|8000h)
   159  0DA3  349E               	retlw	high(_SPI|8000h)
   160                           
   161  0DA4  3412               	retlw	low(_STD|8000h)
   162  0DA5  349E               	retlw	high(_STD|8000h)
   163                           
   164  0DA6  342A               	retlw	low(_ERASE|8000h)
   165  0DA7  349E               	retlw	high(_ERASE|8000h)
   166                           
   167  0DA8  3400               	retlw	0
   168  0DA9  3400               	retlw	0
   169                           	global	_STD
   170                           psect	stringtext,class=STRCODE,delta=2,reloc=256
   171                           global __pstringtext
   172  1E00                     __pstringtext:
   173                           ;	global	stringtab,__stringbase
   174  1E00                     stringtab:
   175                           ;	String table - string pointers are 2 bytes each
   176  1E00  1BFF               	btfsc	(btemp+1),7
   177  1E01  2E0A               	ljmp	stringcode
   178  1E02  1383               	bcf	status,7
   179  1E03  187F               	btfsc	(btemp+1),0
   180  1E04  1783               	bsf	status,7
   181  1E05  0800               	movf	indf,w
   182  1E06  0A84               	incf fsr
   183  1E07  1903               skipnz
   184  1E08  0AFF               incf btemp+1
   185  1E09  0008               	return
   186  1E0A                     stringcode:
   187  1E0A  087F               	movf btemp+1,w
   188  1E0B  397F               andlw 7Fh
   189  1E0C  008A               movwf	pclath
   190  1E0D  0804               	movf	fsr,w
   191  1E0E  0A84               incf fsr
   192  1E0F  1903               skipnz
   193  1E10  0AFF               incf btemp+1
   194  1E11  0082               	movwf pc
   195  1E12                     __stringbase:
   196                           	file	"PR17B.c"
   197                           	line	68
   198  1E12                     _STD:
   199  1E12  3432               	retlw	032h
   200  1E13  342E               	retlw	02Eh
   201  1E14  3453               	retlw	053h
   202  1E15  3454               	retlw	054h
   203  1E16  3441               	retlw	041h
   204  1E17  344E               	retlw	04Eh
   205  1E18  3444               	retlw	044h
   206  1E19  3441               	retlw	041h
   207  1E1A  344C               	retlw	04Ch
   208  1E1B  344F               	retlw	04Fh
   209  1E1C  344E               	retlw	04Eh
   210  1E1D  3445               	retlw	045h
   211  1E1E  3400               	retlw	0
   212                           	global	_SPI
   213                           psect	stringtext
   214                           	file	"PR17B.c"
   215                           	line	67
   216  1E1F                     _SPI:
   217  1E1F  3431               	retlw	031h
   218  1E20  342E               	retlw	02Eh
   219  1E21  3453               	retlw	053h
   220  1E22  3450               	retlw	050h
   221  1E23  3449               	retlw	049h
   222  1E24  3420               	retlw	020h
   223  1E25  344D               	retlw	04Dh
   224  1E26  344F               	retlw	04Fh
   225  1E27  3444               	retlw	044h
   226  1E28  3445               	retlw	045h
   227  1E29  3400               	retlw	0
   228                           	global	_ERASE
   229                           psect	stringtext
   230                           	file	"PR17B.c"
   231                           	line	69
   232  1E2A                     _ERASE:
   233  1E2A  3433               	retlw	033h
   234  1E2B  342E               	retlw	02Eh
   235  1E2C  3445               	retlw	045h
   236  1E2D  3452               	retlw	052h
   237  1E2E  3441               	retlw	041h
   238  1E2F  3453               	retlw	053h
   239  1E30  3445               	retlw	045h
   240  1E31  3400               	retlw	0
   241                           	global	_STD
   242                           	global	_SPI
   243                           	global	_ERASE
   244                           	global	_msg
   245                           	global	_pointer
   246                           	global	_status
   247                           	global	_PORTA
   248  0005                     _PORTA	set	5
   249                           	global	_PORTB
   250  0006                     _PORTB	set	6
   251                           	global	_PORTD
   252  0008                     _PORTD	set	8
   253                           	global	_PORTE
   254  0009                     _PORTE	set	9
   255                           	global	_SSPBUF
   256  0013                     _SSPBUF	set	19
   257                           	global	_TMR0
   258  0001                     _TMR0	set	1
   259                           	global	_CKP
   260  00A4                     _CKP	set	164
   261                           	global	_RA0
   262  0028                     _RA0	set	40
   263                           	global	_RC0
   264  0038                     _RC0	set	56
   265                           	global	_RD3
   266  0043                     _RD3	set	67
   267                           	global	_RD4
   268  0044                     _RD4	set	68
   269                           	global	_RD5
   270  0045                     _RD5	set	69
   271                           	global	_RD6
   272  0046                     _RD6	set	70
   273                           	global	_RD7
   274  0047                     _RD7	set	71
   275                           	global	_RE1
   276  0049                     _RE1	set	73
   277                           	global	_RE2
   278  004A                     _RE2	set	74
   279                           	global	_SSPEN
   280  00A5                     _SSPEN	set	165
   281                           	global	_SSPM0
   282  00A0                     _SSPM0	set	160
   283                           	global	_SSPM1
   284  00A1                     _SSPM1	set	161
   285                           	global	_SSPM2
   286  00A2                     _SSPM2	set	162
   287                           	global	_SSPM3
   288  00A3                     _SSPM3	set	163
   289                           	global	_WCOL
   290  00A7                     _WCOL	set	167
   291                           	global	_ADCON1
   292  009F                     _ADCON1	set	159
   293                           	global	_TRISA
   294  0085                     _TRISA	set	133
   295                           	global	_TRISB
   296  0086                     _TRISB	set	134
   297                           	global	_TRISC
   298  0087                     _TRISC	set	135
   299                           	global	_TRISD
   300  0088                     _TRISD	set	136
   301                           	global	_TRISE
   302  0089                     _TRISE	set	137
   303                           	global	_BF
   304  04A0                     _BF	set	1184
   305                           	global	_CKE
   306  04A6                     _CKE	set	1190
   307                           	global	_PS0
   308  0408                     _PS0	set	1032
   309                           	global	_PS1
   310  0409                     _PS1	set	1033
   311                           	global	_PS2
   312  040A                     _PS2	set	1034
   313                           	global	_PSA
   314  040B                     _PSA	set	1035
   315                           	global	_SMP
   316  04A7                     _SMP	set	1191
   317                           	global	_T0CS
   318  040D                     _T0CS	set	1037
   319                           	global	_TRISC5
   320  043D                     _TRISC5	set	1085
   321                           	
   322  1E32                     STR_24:	
   323  1E32  3473               	retlw	115	;'s'
   324  1E33  3465               	retlw	101	;'e'
   325  1E34  3463               	retlw	99	;'c'
   326  1E35  346F               	retlw	111	;'o'
   327  1E36  346E               	retlw	110	;'n'
   328  1E37  3464               	retlw	100	;'d'
   329  1E38  3420               	retlw	32	;' '
   330  1E39  346D               	retlw	109	;'m'
   331  1E3A  3465               	retlw	101	;'e'
   332  1E3B  3473               	retlw	115	;'s'
   333  1E3C  3473               	retlw	115	;'s'
   334  1E3D  3461               	retlw	97	;'a'
   335  1E3E  3467               	retlw	103	;'g'
   336  1E3F  3465               	retlw	101	;'e'
   337  1E40  342A               	retlw	42	;'*'
   338  1E41  342A               	retlw	42	;'*'
   339  1E42  3400               	retlw	0
   340                           psect	stringtext
   341                           	
   342  1E43                     STR_18:	
   343  1E43  3432               	retlw	50	;'2'
   344  1E44  342E               	retlw	46	;'.'
   345  1E45  3420               	retlw	32	;' '
   346  1E46  344D               	retlw	77	;'M'
   347  1E47  3449               	retlw	73	;'I'
   348  1E48  3443               	retlw	67	;'C'
   349  1E49  3420               	retlw	32	;' '
   350  1E4A  3420               	retlw	32	;' '
   351  1E4B  3420               	retlw	32	;' '
   352  1E4C  3420               	retlw	32	;' '
   353  1E4D  3420               	retlw	32	;' '
   354  1E4E  3420               	retlw	32	;' '
   355  1E4F  3420               	retlw	32	;' '
   356  1E50  3420               	retlw	32	;' '
   357  1E51  3420               	retlw	32	;' '
   358  1E52  3400               	retlw	0
   359                           psect	stringtext
   360                           	
   361  1E53                     STR_47:	
   362  1E53  3431               	retlw	49	;'1'
   363  1E54  342E               	retlw	46	;'.'
   364  1E55  3420               	retlw	32	;' '
   365  1E56  3445               	retlw	69	;'E'
   366  1E57  3472               	retlw	114	;'r'
   367  1E58  3461               	retlw	97	;'a'
   368  1E59  3473               	retlw	115	;'s'
   369  1E5A  3465               	retlw	101	;'e'
   370  1E5B  3420               	retlw	32	;' '
   371  1E5C  3420               	retlw	32	;' '
   372  1E5D  3420               	retlw	32	;' '
   373  1E5E  3420               	retlw	32	;' '
   374  1E5F  3420               	retlw	32	;' '
   375  1E60  3420               	retlw	32	;' '
   376  1E61  3420               	retlw	32	;' '
   377  1E62  3400               	retlw	0
   378                           psect	stringtext
   379                           	
   380  1E63                     STR_13:	
   381  1E63  3431               	retlw	49	;'1'
   382  1E64  342E               	retlw	46	;'.'
   383  1E65  3420               	retlw	32	;' '
   384  1E66  344D               	retlw	77	;'M'
   385  1E67  3465               	retlw	101	;'e'
   386  1E68  3473               	retlw	115	;'s'
   387  1E69  3473               	retlw	115	;'s'
   388  1E6A  3461               	retlw	97	;'a'
   389  1E6B  3467               	retlw	103	;'g'
   390  1E6C  3465               	retlw	101	;'e'
   391  1E6D  3420               	retlw	32	;' '
   392  1E6E  3431               	retlw	49	;'1'
   393  1E6F  3420               	retlw	32	;' '
   394  1E70  3420               	retlw	32	;' '
   395  1E71  3420               	retlw	32	;' '
   396  1E72  3400               	retlw	0
   397                           psect	stringtext
   398                           	
   399  1E73                     STR_21:	
   400  1E73  3466               	retlw	102	;'f'
   401  1E74  3469               	retlw	105	;'i'
   402  1E75  3472               	retlw	114	;'r'
   403  1E76  3473               	retlw	115	;'s'
   404  1E77  3474               	retlw	116	;'t'
   405  1E78  3420               	retlw	32	;' '
   406  1E79  346D               	retlw	109	;'m'
   407  1E7A  3465               	retlw	101	;'e'
   408  1E7B  3473               	retlw	115	;'s'
   409  1E7C  3473               	retlw	115	;'s'
   410  1E7D  3461               	retlw	97	;'a'
   411  1E7E  3467               	retlw	103	;'g'
   412  1E7F  3465               	retlw	101	;'e'
   413  1E80  342A               	retlw	42	;'*'
   414  1E81  342A               	retlw	42	;'*'
   415  1E82  3400               	retlw	0
   416                           psect	stringtext
   417                           	
   418  1E83                     STR_30:	
   419  1E83  342A               	retlw	42	;'*'
   420  1E84  342A               	retlw	42	;'*'
   421  1E85  3472               	retlw	114	;'r'
   422  1E86  3465               	retlw	101	;'e'
   423  1E87  3463               	retlw	99	;'c'
   424  1E88  346F               	retlw	111	;'o'
   425  1E89  3472               	retlw	114	;'r'
   426  1E8A  3464               	retlw	100	;'d'
   427  1E8B  3469               	retlw	105	;'i'
   428  1E8C  346E               	retlw	110	;'n'
   429  1E8D  3467               	retlw	103	;'g'
   430  1E8E  3420               	retlw	32	;' '
   431  1E8F  3474               	retlw	116	;'t'
   432  1E90  3468               	retlw	104	;'h'
   433  1E91  3465               	retlw	101	;'e'
   434  1E92  3400               	retlw	0
   435                           psect	stringtext
   436                           	
   437  1E93                     STR_48:	
   438  1E93  3432               	retlw	50	;'2'
   439  1E94  342E               	retlw	46	;'.'
   440  1E95  3420               	retlw	32	;' '
   441  1E96  3447               	retlw	71	;'G'
   442  1E97  346C               	retlw	108	;'l'
   443  1E98  346F               	retlw	111	;'o'
   444  1E99  3462               	retlw	98	;'b'
   445  1E9A  3461               	retlw	97	;'a'
   446  1E9B  346C               	retlw	108	;'l'
   447  1E9C  3420               	retlw	32	;' '
   448  1E9D  3445               	retlw	69	;'E'
   449  1E9E  3472               	retlw	114	;'r'
   450  1E9F  3461               	retlw	97	;'a'
   451  1EA0  3473               	retlw	115	;'s'
   452  1EA1  3465               	retlw	101	;'e'
   453  1EA2  3400               	retlw	0
   454                           psect	stringtext
   455                           	
   456  1EA3                     STR_17:	
   457  1EA3  3431               	retlw	49	;'1'
   458  1EA4  342E               	retlw	46	;'.'
   459  1EA5  3420               	retlw	32	;' '
   460  1EA6  3441               	retlw	65	;'A'
   461  1EA7  346E               	retlw	110	;'n'
   462  1EA8  3461               	retlw	97	;'a'
   463  1EA9  346C               	retlw	108	;'l'
   464  1EAA  346F               	retlw	111	;'o'
   465  1EAB  3467               	retlw	103	;'g'
   466  1EAC  3420               	retlw	32	;' '
   467  1EAD  3449               	retlw	73	;'I'
   468  1EAE  346E               	retlw	110	;'n'
   469  1EAF  3470               	retlw	112	;'p'
   470  1EB0  3475               	retlw	117	;'u'
   471  1EB1  3474               	retlw	116	;'t'
   472  1EB2  3400               	retlw	0
   473                           psect	stringtext
   474                           	
   475  1EB3                     STR_51:	
   476  1EB3  344D               	retlw	77	;'M'
   477  1EB4  3465               	retlw	101	;'e'
   478  1EB5  346D               	retlw	109	;'m'
   479  1EB6  346F               	retlw	111	;'o'
   480  1EB7  3472               	retlw	114	;'r'
   481  1EB8  3479               	retlw	121	;'y'
   482  1EB9  3420               	retlw	32	;' '
   483  1EBA  3443               	retlw	67	;'C'
   484  1EBB  346C               	retlw	108	;'l'
   485  1EBC  3465               	retlw	101	;'e'
   486  1EBD  3461               	retlw	97	;'a'
   487  1EBE  3472               	retlw	114	;'r'
   488  1EBF  3465               	retlw	101	;'e'
   489  1EC0  3464               	retlw	100	;'d'
   490  1EC1  3400               	retlw	0
   491                           psect	stringtext
   492                           	
   493  1EC2                     STR_43:	
   494  1EC2  3473               	retlw	115	;'s'
   495  1EC3  3465               	retlw	101	;'e'
   496  1EC4  346C               	retlw	108	;'l'
   497  1EC5  3465               	retlw	101	;'e'
   498  1EC6  3463               	retlw	99	;'c'
   499  1EC7  3474               	retlw	116	;'t'
   500  1EC8  3420               	retlw	32	;' '
   501  1EC9  3474               	retlw	116	;'t'
   502  1ECA  346F               	retlw	111	;'o'
   503  1ECB  3420               	retlw	32	;' '
   504  1ECC  3473               	retlw	115	;'s'
   505  1ECD  3474               	retlw	116	;'t'
   506  1ECE  346F               	retlw	111	;'o'
   507  1ECF  3470               	retlw	112	;'p'
   508  1ED0  3400               	retlw	0
   509                           psect	stringtext
   510                           	
   511  1ED1                     STR_20:	
   512  1ED1  342A               	retlw	42	;'*'
   513  1ED2  342A               	retlw	42	;'*'
   514  1ED3  3470               	retlw	112	;'p'
   515  1ED4  346C               	retlw	108	;'l'
   516  1ED5  3461               	retlw	97	;'a'
   517  1ED6  3479               	retlw	121	;'y'
   518  1ED7  3469               	retlw	105	;'i'
   519  1ED8  346E               	retlw	110	;'n'
   520  1ED9  3467               	retlw	103	;'g'
   521  1EDA  3420               	retlw	32	;' '
   522  1EDB  3474               	retlw	116	;'t'
   523  1EDC  3468               	retlw	104	;'h'
   524  1EDD  3465               	retlw	101	;'e'
   525  1EDE  3400               	retlw	0
   526                           psect	stringtext
   527                           	
   528  1EDF                     STR_2:	
   529  1EDF  3420               	retlw	32	;' '
   530  1EE0  3420               	retlw	32	;' '
   531  1EE1  3420               	retlw	32	;' '
   532  1EE2  3420               	retlw	32	;' '
   533  1EE3  3420               	retlw	32	;' '
   534  1EE4  3420               	retlw	32	;' '
   535  1EE5  3420               	retlw	32	;' '
   536  1EE6  3420               	retlw	32	;' '
   537  1EE7  3420               	retlw	32	;' '
   538  1EE8  3420               	retlw	32	;' '
   539  1EE9  3420               	retlw	32	;' '
   540  1EEA  3420               	retlw	32	;' '
   541  1EEB  3400               	retlw	0
   542                           psect	stringtext
   543                           	
   544  1EEC                     STR_27:	
   545  1EEC  3431               	retlw	49	;'1'
   546  1EED  342E               	retlw	46	;'.'
   547  1EEE  3420               	retlw	32	;' '
   548  1EEF  344D               	retlw	77	;'M'
   549  1EF0  3465               	retlw	101	;'e'
   550  1EF1  3473               	retlw	115	;'s'
   551  1EF2  3473               	retlw	115	;'s'
   552  1EF3  3461               	retlw	97	;'a'
   553  1EF4  3467               	retlw	103	;'g'
   554  1EF5  3465               	retlw	101	;'e'
   555  1EF6  3420               	retlw	32	;' '
   556  1EF7  3431               	retlw	49	;'1'
   557  1EF8  3400               	retlw	0
   558                           psect	stringtext
   559                           	
   560  1EF9                     STR_14:	
   561  1EF9  3432               	retlw	50	;'2'
   562  1EFA  342E               	retlw	46	;'.'
   563  1EFB  3420               	retlw	32	;' '
   564  1EFC  344D               	retlw	77	;'M'
   565  1EFD  3465               	retlw	101	;'e'
   566  1EFE  3473               	retlw	115	;'s'
   567  1EFF  3473               	retlw	115	;'s'
   568  1F00  3461               	retlw	97	;'a'
   569  1F01  3467               	retlw	103	;'g'
   570  1F02  3465               	retlw	101	;'e'
   571  1F03  3420               	retlw	32	;' '
   572  1F04  3432               	retlw	50	;'2'
   573  1F05  3400               	retlw	0
   574                           psect	stringtext
   575                           	
   576  1F06                     STR_9:	
   577  1F06  3432               	retlw	50	;'2'
   578  1F07  342E               	retlw	46	;'.'
   579  1F08  3420               	retlw	32	;' '
   580  1F09  3450               	retlw	80	;'P'
   581  1F0A  346C               	retlw	108	;'l'
   582  1F0B  3461               	retlw	97	;'a'
   583  1F0C  3479               	retlw	121	;'y'
   584  1F0D  3420               	retlw	32	;' '
   585  1F0E  3420               	retlw	32	;' '
   586  1F0F  3420               	retlw	32	;' '
   587  1F10  3420               	retlw	32	;' '
   588  1F11  3400               	retlw	0
   589                           psect	stringtext
   590                           	
   591  1F12                     STR_37:	
   592  1F12  342A               	retlw	42	;'*'
   593  1F13  342A               	retlw	42	;'*'
   594  1F14  3470               	retlw	112	;'p'
   595  1F15  346C               	retlw	108	;'l'
   596  1F16  3461               	retlw	97	;'a'
   597  1F17  3479               	retlw	121	;'y'
   598  1F18  342A               	retlw	42	;'*'
   599  1F19  342A               	retlw	42	;'*'
   600  1F1A  3420               	retlw	32	;' '
   601  1F1B  3420               	retlw	32	;' '
   602  1F1C  3420               	retlw	32	;' '
   603  1F1D  3400               	retlw	0
   604                           psect	stringtext
   605                           	
   606  1F1E                     STR_10:	
   607  1F1E  3433               	retlw	51	;'3'
   608  1F1F  342E               	retlw	46	;'.'
   609  1F20  3420               	retlw	32	;' '
   610  1F21  3452               	retlw	82	;'R'
   611  1F22  3465               	retlw	101	;'e'
   612  1F23  3463               	retlw	99	;'c'
   613  1F24  346F               	retlw	111	;'o'
   614  1F25  3472               	retlw	114	;'r'
   615  1F26  3464               	retlw	100	;'d'
   616  1F27  3420               	retlw	32	;' '
   617  1F28  3420               	retlw	32	;' '
   618  1F29  3400               	retlw	0
   619                           psect	stringtext
   620                           	
   621  1F2A                     STR_11:	
   622  1F2A  3431               	retlw	49	;'1'
   623  1F2B  342E               	retlw	46	;'.'
   624  1F2C  3420               	retlw	32	;' '
   625  1F2D  3446               	retlw	70	;'F'
   626  1F2E  346F               	retlw	111	;'o'
   627  1F2F  3472               	retlw	114	;'r'
   628  1F30  3477               	retlw	119	;'w'
   629  1F31  3461               	retlw	97	;'a'
   630  1F32  3472               	retlw	114	;'r'
   631  1F33  3464               	retlw	100	;'d'
   632  1F34  3420               	retlw	32	;' '
   633  1F35  3400               	retlw	0
   634                           psect	stringtext
   635                           	
   636  1F36                     STR_36:	
   637  1F36  342A               	retlw	42	;'*'
   638  1F37  342A               	retlw	42	;'*'
   639  1F38  3466               	retlw	102	;'f'
   640  1F39  346F               	retlw	111	;'o'
   641  1F3A  3472               	retlw	114	;'r'
   642  1F3B  3477               	retlw	119	;'w'
   643  1F3C  3461               	retlw	97	;'a'
   644  1F3D  3472               	retlw	114	;'r'
   645  1F3E  3464               	retlw	100	;'d'
   646  1F3F  342A               	retlw	42	;'*'
   647  1F40  342A               	retlw	42	;'*'
   648  1F41  3400               	retlw	0
   649                           psect	stringtext
   650                           	
   651  1F42                     STR_45:	
   652  1F42  3472               	retlw	114	;'r'
   653  1F43  3465               	retlw	101	;'e'
   654  1F44  3463               	retlw	99	;'c'
   655  1F45  346F               	retlw	111	;'o'
   656  1F46  3472               	retlw	114	;'r'
   657  1F47  3464               	retlw	100	;'d'
   658  1F48  3469               	retlw	105	;'i'
   659  1F49  346E               	retlw	110	;'n'
   660  1F4A  3467               	retlw	103	;'g'
   661  1F4B  342A               	retlw	42	;'*'
   662  1F4C  342A               	retlw	42	;'*'
   663  1F4D  3400               	retlw	0
   664                           psect	stringtext
   665                           	
   666  1F4E                     STR_3:	
   667  1F4E  3453               	retlw	83	;'S'
   668  1F4F  3477               	retlw	119	;'w'
   669  1F50  3469               	retlw	105	;'i'
   670  1F51  3474               	retlw	116	;'t'
   671  1F52  3463               	retlw	99	;'c'
   672  1F53  3468               	retlw	104	;'h'
   673  1F54  3420               	retlw	32	;' '
   674  1F55  346D               	retlw	109	;'m'
   675  1F56  346F               	retlw	111	;'o'
   676  1F57  3464               	retlw	100	;'d'
   677  1F58  3465               	retlw	101	;'e'
   678  1F59  3400               	retlw	0
   679                           psect	stringtext
   680                           	
   681  1F5A                     STR_1:	
   682  1F5A  3453               	retlw	83	;'S'
   683  1F5B  3465               	retlw	101	;'e'
   684  1F5C  346C               	retlw	108	;'l'
   685  1F5D  3465               	retlw	101	;'e'
   686  1F5E  3463               	retlw	99	;'c'
   687  1F5F  3474               	retlw	116	;'t'
   688  1F60  3420               	retlw	32	;' '
   689  1F61  346D               	retlw	109	;'m'
   690  1F62  346F               	retlw	111	;'o'
   691  1F63  3464               	retlw	100	;'d'
   692  1F64  3465               	retlw	101	;'e'
   693  1F65  3400               	retlw	0
   694                           psect	stringtext
   695                           	
   696  1F66                     STR_4:	
   697  1F66  3431               	retlw	49	;'1'
   698  1F67  342E               	retlw	46	;'.'
   699  1F68  3420               	retlw	32	;' '
   700  1F69  3450               	retlw	80	;'P'
   701  1F6A  344C               	retlw	76	;'L'
   702  1F6B  3441               	retlw	65	;'A'
   703  1F6C  3459               	retlw	89	;'Y'
   704  1F6D  3420               	retlw	32	;' '
   705  1F6E  3420               	retlw	32	;' '
   706  1F6F  3420               	retlw	32	;' '
   707  1F70  3400               	retlw	0
   708                           psect	stringtext
   709                           	
   710  1F71                     STR_22:	
   711  1F71  342A               	retlw	42	;'*'
   712  1F72  342A               	retlw	42	;'*'
   713  1F73  342A               	retlw	42	;'*'
   714  1F74  3468               	retlw	104	;'h'
   715  1F75  3461               	retlw	97	;'a'
   716  1F76  346C               	retlw	108	;'l'
   717  1F77  3474               	retlw	116	;'t'
   718  1F78  342A               	retlw	42	;'*'
   719  1F79  342A               	retlw	42	;'*'
   720  1F7A  342A               	retlw	42	;'*'
   721  1F7B  3400               	retlw	0
   722                           psect	stringtext
   723                           	
   724  1F7C                     STR_42:	
   725  1F7C  342A               	retlw	42	;'*'
   726  1F7D  342A               	retlw	42	;'*'
   727  1F7E  3472               	retlw	114	;'r'
   728  1F7F  3465               	retlw	101	;'e'
   729  1F80  3463               	retlw	99	;'c'
   730  1F81  346F               	retlw	111	;'o'
   731  1F82  3472               	retlw	114	;'r'
   732  1F83  3464               	retlw	100	;'d'
   733  1F84  342A               	retlw	42	;'*'
   734  1F85  342A               	retlw	42	;'*'
   735  1F86  3400               	retlw	0
   736                           psect	stringtext
   737                           	
   738  1F87                     STR_8:	
   739  1F87  3431               	retlw	49	;'1'
   740  1F88  342E               	retlw	46	;'.'
   741  1F89  3420               	retlw	32	;' '
   742  1F8A  3446               	retlw	70	;'F'
   743  1F8B  346F               	retlw	111	;'o'
   744  1F8C  3472               	retlw	114	;'r'
   745  1F8D  3477               	retlw	119	;'w'
   746  1F8E  3461               	retlw	97	;'a'
   747  1F8F  3472               	retlw	114	;'r'
   748  1F90  3464               	retlw	100	;'d'
   749  1F91  3400               	retlw	0
   750                           psect	stringtext
   751                           	
   752  1F92                     STR_5:	
   753  1F92  3432               	retlw	50	;'2'
   754  1F93  342E               	retlw	46	;'.'
   755  1F94  3420               	retlw	32	;' '
   756  1F95  3452               	retlw	82	;'R'
   757  1F96  3445               	retlw	69	;'E'
   758  1F97  3443               	retlw	67	;'C'
   759  1F98  344F               	retlw	79	;'O'
   760  1F99  3452               	retlw	82	;'R'
   761  1F9A  3444               	retlw	68	;'D'
   762  1F9B  3400               	retlw	0
   763                           psect	stringtext
   764                           	
   765  1F9C                     STR_46:	
   766  1F9C  3444               	retlw	68	;'D'
   767  1F9D  3465               	retlw	101	;'e'
   768  1F9E  3463               	retlw	99	;'c'
   769  1F9F  3469               	retlw	105	;'i'
   770  1FA0  3473               	retlw	115	;'s'
   771  1FA1  3469               	retlw	105	;'i'
   772  1FA2  346F               	retlw	111	;'o'
   773  1FA3  346E               	retlw	110	;'n'
   774  1FA4  3400               	retlw	0
   775                           psect	stringtext
   776                           	
   777  1FA5                     STR_12:	
   778  1FA5  344C               	retlw	76	;'L'
   779  1FA6  346F               	retlw	111	;'o'
   780  1FA7  3463               	retlw	99	;'c'
   781  1FA8  3461               	retlw	97	;'a'
   782  1FA9  3474               	retlw	116	;'t'
   783  1FAA  3469               	retlw	105	;'i'
   784  1FAB  346F               	retlw	111	;'o'
   785  1FAC  346E               	retlw	110	;'n'
   786  1FAD  3400               	retlw	0
   787                           psect	stringtext
   788                           	
   789  1FAE                     STR_44:	
   790  1FAE  342A               	retlw	42	;'*'
   791  1FAF  342A               	retlw	42	;'*'
   792  1FB0  3473               	retlw	115	;'s'
   793  1FB1  3474               	retlw	116	;'t'
   794  1FB2  346F               	retlw	111	;'o'
   795  1FB3  3470               	retlw	112	;'p'
   796  1FB4  3420               	retlw	32	;' '
   797  1FB5  3400               	retlw	0
   798                           psect	stringtext
   799                           	
   800  1FB6                     STR_50:	
   801  1FB6  3445               	retlw	69	;'E'
   802  1FB7  3472               	retlw	114	;'r'
   803  1FB8  3461               	retlw	97	;'a'
   804  1FB9  3473               	retlw	115	;'s'
   805  1FBA  3465               	retlw	101	;'e'
   806  1FBB  3464               	retlw	100	;'d'
   807  1FBC  3400               	retlw	0
   808                           psect	stringtext
   809                           	
   810  1FBD                     STR_16:	
   811  1FBD  344F               	retlw	79	;'O'
   812  1FBE  3470               	retlw	112	;'p'
   813  1FBF  3474               	retlw	116	;'t'
   814  1FC0  3469               	retlw	105	;'i'
   815  1FC1  346F               	retlw	111	;'o'
   816  1FC2  346E               	retlw	110	;'n'
   817  1FC3  3400               	retlw	0
   818                           psect	stringtext
   819  1EA3                     STR_19	equ	STR_17+0
   820  1EA3                     STR_39	equ	STR_17+0
   821  1EA3                     STR_41	equ	STR_17+0
   822  1FBD                     STR_38	equ	STR_16+0
   823  1FA5                     STR_26	equ	STR_12+0
   824  1ED1                     STR_23	equ	STR_20+0
   825  1E83                     STR_33	equ	STR_30+0
   826  1F4E                     STR_7	equ	STR_3+0
   827  1EF9                     STR_28	equ	STR_14+0
   828  1EEC                     STR_29	equ	STR_27+0
   829  1E73                     STR_31	equ	STR_21+0
   830  1E32                     STR_34	equ	STR_24+0
   831  1F71                     STR_25	equ	STR_22+0
   832  1F71                     STR_32	equ	STR_22+0
   833  1F71                     STR_35	equ	STR_22+0
   834  1F66                     STR_6	equ	STR_4+0
   835  1E63                     STR_15	equ	STR_13+0
   836  1E53                     STR_49	equ	STR_47+0
   837  1E43                     STR_40	equ	STR_18+0
   838                           	file	"C:\Users\HATAKE~1\AppData\Local\Temp\s18jk."
   839                           	line	#
   840                           psect cinit,class=CODE,delta=2
   841                           global start_initialization
   842  0DE1                     start_initialization:
   843                           
   844                           psect	bssBANK0,class=BANK0,space=1
   845                           global __pbssBANK0
   846  002D                     __pbssBANK0:
   847  002D                     _msg:
   848  002D                            ds      1
   849                           
   850  002E                     _pointer:
   851  002E                            ds      1
   852                           
   853  002F                     _status:
   854  002F                            ds      1
   855                           
   856                           psect	dataBANK0,class=BANK0,space=1
   857                           global __pdataBANK0
   858  0020                     __pdataBANK0:
   859                           	file	"PR17B.c"
   860                           	line	70
   861  0020                     _mode:
   862  0020                            ds      8
   863                           
   864                           ; Clear objects allocated to BANK0
   865                           psect cinit,class=CODE,delta=2
   866  0DE1  01AD               	clrf	((__pbssBANK0)+0)&07Fh
   867  0DE2  01AE               	clrf	((__pbssBANK0)+1)&07Fh
   868  0DE3  01AF               	clrf	((__pbssBANK0)+2)&07Fh
   869                           global btemp
   870                           psect inittext,class=CODE,delta=2
   871                           global init_fetch,btemp
   872                           ;	Called with low address in FSR and high address in W
   873  0DAA                     init_fetch:
   874  0DAA  087E               	movf btemp,w
   875  0DAB  008A               	movwf pclath
   876  0DAC  087F               	movf btemp+1,w
   877  0DAD  0082               	movwf pc
   878                           global init_ram
   879                           ;Called with:
   880                           ;	high address of idata address in btemp 
   881                           ;	low address of idata address in btemp+1 
   882                           ;	low address of data in FSR
   883                           ;	high address + 1 of data in btemp-1
   884  0DAE                     init_ram:
   885  0DAE  25AA  120A  158A   	fcall init_fetch
   886  0DB1  0080               	movwf indf,f
   887  0DB2  0A84               	incf fsr,f
   888  0DB3  0804               	movf fsr,w
   889  0DB4  067D               	xorwf btemp-1,w
   890  0DB5  1903               	btfsc status,2
   891  0DB6  3400               	retlw 0
   892  0DB7  0AFF               	incf btemp+1,f
   893  0DB8  1903               	btfsc status,2
   894  0DB9  0AFE               	incf btemp,f
   895  0DBA  2DAE               	goto init_ram
   896                           ; Initialize objects allocated to BANK0
   897                           psect cinit,class=CODE,delta=2
   898                           global init_ram, __pidataBANK0
   899  0DE4  1383               	bcf	status, 7	;select IRP bank0
   900  0DE5  3028               	movlw low(__pdataBANK0+8)
   901  0DE6  00FD               	movwf btemp-1,f
   902  0DE7  300D               	movlw high(__pidataBANK0)
   903  0DE8  00FE               	movwf btemp,f
   904  0DE9  30A2               	movlw low(__pidataBANK0)
   905  0DEA  00FF               	movwf btemp+1,f
   906  0DEB  3020               	movlw low(__pdataBANK0)
   907  0DEC  0084               	movwf fsr,f
   908  0DED  120A  158A  25AE   	fcall init_ram
              120A  158A         
   909                           psect cinit,class=CODE,delta=2
   910                           global end_of_initialization
   911                           
   912                           ;End of C runtime variable initialization code
   913                           
   914  0DF2                     end_of_initialization:
   915  0DF2  0183               clrf status
   916  0DF3  120A  118A  2EA4   ljmp _main	;jump to C main() function
   917                           psect	cstackCOMMON,class=COMMON,space=1
   918                           global __pcstackCOMMON
   919  0070                     __pcstackCOMMON:
   920                           	global	?_Init
   921  0070                     ?_Init:	; 0 bytes @ 0x0
   922                           	global	?_lcd_clr
   923  0070                     ?_lcd_clr:	; 0 bytes @ 0x0
   924                           	global	?_lcd_goto
   925  0070                     ?_lcd_goto:	; 0 bytes @ 0x0
   926                           	global	?_Stand
   927  0070                     ?_Stand:	; 0 bytes @ 0x0
   928                           	global	?_Erase
   929  0070                     ?_Erase:	; 0 bytes @ 0x0
   930                           	global	?_Spi
   931  0070                     ?_Spi:	; 0 bytes @ 0x0
   932                           	global	?_send_config
   933  0070                     ?_send_config:	; 0 bytes @ 0x0
   934                           	global	?_spi_initialize
   935  0070                     ?_spi_initialize:	; 0 bytes @ 0x0
   936                           	global	??_spi_initialize
   937  0070                     ??_spi_initialize:	; 0 bytes @ 0x0
   938                           	global	??_uc_send_receive_spi
   939  0070                     ??_uc_send_receive_spi:	; 0 bytes @ 0x0
   940                           	global	?_tmr_delay
   941  0070                     ?_tmr_delay:	; 0 bytes @ 0x0
   942                           	global	?_e_pulse
   943  0070                     ?_e_pulse:	; 0 bytes @ 0x0
   944                           	global	?_Record
   945  0070                     ?_Record:	; 0 bytes @ 0x0
   946                           	global	?_Play
   947  0070                     ?_Play:	; 0 bytes @ 0x0
   948                           	global	?_Play_s
   949  0070                     ?_Play_s:	; 0 bytes @ 0x0
   950                           	global	?_Option
   951  0070                     ?_Option:	; 0 bytes @ 0x0
   952                           	global	?_Forward
   953  0070                     ?_Forward:	; 0 bytes @ 0x0
   954                           	global	?_message2p
   955  0070                     ?_message2p:	; 0 bytes @ 0x0
   956                           	global	?_message1p
   957  0070                     ?_message1p:	; 0 bytes @ 0x0
   958                           	global	?_mic
   959  0070                     ?_mic:	; 0 bytes @ 0x0
   960                           	global	?_analog
   961  0070                     ?_analog:	; 0 bytes @ 0x0
   962                           	global	?_message2r
   963  0070                     ?_message2r:	; 0 bytes @ 0x0
   964                           	global	?_message1r
   965  0070                     ?_message1r:	; 0 bytes @ 0x0
   966                           	global	?_Record_s
   967  0070                     ?_Record_s:	; 0 bytes @ 0x0
   968                           	global	?_g_erase
   969  0070                     ?_g_erase:	; 0 bytes @ 0x0
   970                           	global	?_erase
   971  0070                     ?_erase:	; 0 bytes @ 0x0
   972                           	global	?_main
   973  0070                     ?_main:	; 0 bytes @ 0x0
   974                           	global	?_delay
   975  0070                     ?_delay:	; 0 bytes @ 0x0
   976                           	global	?_send_char
   977  0070                     ?_send_char:	; 0 bytes @ 0x0
   978                           	global	?_location
   979  0070                     ?_location:	; 0 bytes @ 0x0
   980                           	global	?_uc_send_receive_spi
   981  0070                     ?_uc_send_receive_spi:	; 1 bytes @ 0x0
   982                           	global	uc_send_receive_spi@uc_data
   983  0070                     uc_send_receive_spi@uc_data:	; 1 bytes @ 0x0
   984                           	global	tmr_delay@lenght
   985  0070                     tmr_delay@lenght:	; 2 bytes @ 0x0
   986                           	global	delay@data
   987  0070                     delay@data:	; 4 bytes @ 0x0
   988  0070                     	ds	2
   989                           	global	??_tmr_delay
   990  0072                     ??_tmr_delay:	; 0 bytes @ 0x2
   991  0072                     	ds	2
   992                           	global	??_delay
   993  0074                     ??_delay:	; 0 bytes @ 0x4
   994  0074                     	ds	4
   995                           	global	??_send_config
   996  0078                     ??_send_config:	; 0 bytes @ 0x8
   997                           	global	??_e_pulse
   998  0078                     ??_e_pulse:	; 0 bytes @ 0x8
   999                           	global	??_send_char
  1000  0078                     ??_send_char:	; 0 bytes @ 0x8
  1001                           	global	send_config@data
  1002  0078                     send_config@data:	; 1 bytes @ 0x8
  1003                           	global	send_char@data
  1004  0078                     send_char@data:	; 1 bytes @ 0x8
  1005  0078                     	ds	1
  1006                           	global	??_Init
  1007  0079                     ??_Init:	; 0 bytes @ 0x9
  1008                           	global	??_lcd_clr
  1009  0079                     ??_lcd_clr:	; 0 bytes @ 0x9
  1010                           	global	??_lcd_goto
  1011  0079                     ??_lcd_goto:	; 0 bytes @ 0x9
  1012                           	global	?_send_string
  1013  0079                     ?_send_string:	; 0 bytes @ 0x9
  1014                           	global	send_string@s
  1015  0079                     send_string@s:	; 2 bytes @ 0x9
  1016  0079                     	ds	1
  1017                           	global	lcd_goto@data
  1018  007A                     lcd_goto@data:	; 1 bytes @ 0xA
  1019  007A                     	ds	1
  1020                           	global	??_send_string
  1021  007B                     ??_send_string:	; 0 bytes @ 0xB
  1022                           	global	??_Erase
  1023  007B                     ??_Erase:	; 0 bytes @ 0xB
  1024                           	global	??_Play
  1025  007B                     ??_Play:	; 0 bytes @ 0xB
  1026                           	global	??_Play_s
  1027  007B                     ??_Play_s:	; 0 bytes @ 0xB
  1028                           	global	??_Option
  1029  007B                     ??_Option:	; 0 bytes @ 0xB
  1030                           	global	??_Forward
  1031  007B                     ??_Forward:	; 0 bytes @ 0xB
  1032                           	global	??_message2p
  1033  007B                     ??_message2p:	; 0 bytes @ 0xB
  1034                           	global	??_message1p
  1035  007B                     ??_message1p:	; 0 bytes @ 0xB
  1036                           	global	??_message2r
  1037  007B                     ??_message2r:	; 0 bytes @ 0xB
  1038                           	global	??_message1r
  1039  007B                     ??_message1r:	; 0 bytes @ 0xB
  1040                           	global	??_Record_s
  1041  007B                     ??_Record_s:	; 0 bytes @ 0xB
  1042                           	global	??_g_erase
  1043  007B                     ??_g_erase:	; 0 bytes @ 0xB
  1044                           	global	??_erase
  1045  007B                     ??_erase:	; 0 bytes @ 0xB
  1046                           	global	??_location
  1047  007B                     ??_location:	; 0 bytes @ 0xB
  1048  007B                     	ds	1
  1049                           	global	Play@i
  1050  007C                     Play@i:	; 1 bytes @ 0xC
  1051                           	global	location@i
  1052  007C                     location@i:	; 1 bytes @ 0xC
  1053                           	global	Option@i
  1054  007C                     Option@i:	; 1 bytes @ 0xC
  1055                           	global	Erase@i
  1056  007C                     Erase@i:	; 1 bytes @ 0xC
  1057  007C                     	ds	1
  1058                           	global	??_Stand
  1059  007D                     ??_Stand:	; 0 bytes @ 0xD
  1060                           	global	??_Record
  1061  007D                     ??_Record:	; 0 bytes @ 0xD
  1062                           	global	??_mic
  1063  007D                     ??_mic:	; 0 bytes @ 0xD
  1064                           	global	??_analog
  1065  007D                     ??_analog:	; 0 bytes @ 0xD
  1066  007D                     	ds	1
  1067                           psect	cstackBANK0,class=BANK0,space=1
  1068                           global __pcstackBANK0
  1069  0028                     __pcstackBANK0:
  1070                           	global	Stand@i
  1071  0028                     Stand@i:	; 1 bytes @ 0x0
  1072                           	global	Record@i
  1073  0028                     Record@i:	; 1 bytes @ 0x0
  1074  0028                     	ds	1
  1075                           	global	??_Spi
  1076  0029                     ??_Spi:	; 0 bytes @ 0x1
  1077  0029                     	ds	1
  1078                           	global	Spi@i
  1079  002A                     Spi@i:	; 1 bytes @ 0x2
  1080  002A                     	ds	1
  1081                           	global	??_main
  1082  002B                     ??_main:	; 0 bytes @ 0x3
  1083  002B                     	ds	1
  1084                           	global	main@j
  1085  002C                     main@j:	; 1 bytes @ 0x4
  1086  002C                     	ds	1
  1087 ;;Data sizes: Strings 402, constant 32, data 8, bss 3, persistent 0 stack 0
  1088 ;;Auto spaces:   Size  Autos    Used
  1089 ;; COMMON          14     14      14
  1090 ;; BANK0           80      5      16
  1091 ;; BANK1           80      0       0
  1092 ;; BANK3           96      0       0
  1093 ;; BANK2           96      0       0
  1094                           
  1095 ;;
  1096 ;; Pointer list with targets:
  1097                           
  1098 ;; send_string@s	PTR const unsigned char  size(2) Largest target is 17
  1099 ;;		 -> STR_51(CODE[15]), STR_50(CODE[7]), STR_49(CODE[16]), STR_48(CODE[16]), 
  1100 ;;		 -> STR_47(CODE[16]), STR_46(CODE[9]), STR_45(CODE[12]), STR_44(CODE[8]), 
  1101 ;;		 -> STR_43(CODE[15]), STR_42(CODE[11]), STR_41(CODE[16]), STR_40(CODE[16]), 
  1102 ;;		 -> STR_39(CODE[16]), STR_38(CODE[7]), STR_37(CODE[12]), STR_36(CODE[12]), 
  1103 ;;		 -> STR_35(CODE[11]), STR_34(CODE[17]), STR_33(CODE[16]), STR_32(CODE[11]), 
  1104 ;;		 -> STR_31(CODE[16]), STR_30(CODE[16]), STR_29(CODE[13]), STR_28(CODE[13]), 
  1105 ;;		 -> STR_27(CODE[13]), STR_26(CODE[9]), STR_25(CODE[11]), STR_24(CODE[17]), 
  1106 ;;		 -> STR_23(CODE[14]), STR_22(CODE[11]), STR_21(CODE[16]), STR_20(CODE[14]), 
  1107 ;;		 -> STR_19(CODE[16]), STR_18(CODE[16]), STR_17(CODE[16]), STR_16(CODE[7]), 
  1108 ;;		 -> STR_15(CODE[16]), STR_14(CODE[13]), STR_13(CODE[16]), STR_12(CODE[9]), 
  1109 ;;		 -> STR_11(CODE[12]), STR_10(CODE[12]), STR_9(CODE[12]), STR_8(CODE[11]), 
  1110 ;;		 -> STR_7(CODE[12]), STR_6(CODE[11]), STR_5(CODE[10]), STR_4(CODE[11]), 
  1111 ;;		 -> STR_3(CODE[12]), STR_2(CODE[13]), STR_1(CODE[12]), ERASE(CODE[8]), 
  1112 ;;		 -> STD(CODE[13]), SPI(CODE[11]), 
  1113 ;;
  1114 ;; mode	PTR const unsigned char [4] size(2) Largest target is 13
  1115 ;;		 -> ERASE(CODE[8]), STD(CODE[13]), SPI(CODE[11]), 
  1116 ;;
  1117                           
  1118                           
  1119 ;;
  1120 ;; Critical Paths under _main in COMMON
  1121 ;;
  1122 ;;   _main->_Stand
  1123 ;;   _Spi->_Record
  1124 ;;   _analog->_location
  1125 ;;   _mic->_location
  1126 ;;   _Stand->_Option
  1127 ;;   _location->_lcd_goto
  1128 ;;   _location->_send_string
  1129 ;;   _Option->_lcd_goto
  1130 ;;   _Option->_send_string
  1131 ;;   _Play->_lcd_goto
  1132 ;;   _Play->_send_string
  1133 ;;   _Erase->_lcd_goto
  1134 ;;   _Erase->_send_string
  1135 ;;   _erase->_lcd_goto
  1136 ;;   _erase->_send_string
  1137 ;;   _g_erase->_lcd_goto
  1138 ;;   _g_erase->_send_string
  1139 ;;   _Record_s->_lcd_goto
  1140 ;;   _Record_s->_send_string
  1141 ;;   _message1r->_lcd_goto
  1142 ;;   _message1r->_send_string
  1143 ;;   _message2r->_lcd_goto
  1144 ;;   _message2r->_send_string
  1145 ;;   _message1p->_lcd_goto
  1146 ;;   _message1p->_send_string
  1147 ;;   _message2p->_lcd_goto
  1148 ;;   _message2p->_send_string
  1149 ;;   _Forward->_lcd_goto
  1150 ;;   _Forward->_send_string
  1151 ;;   _Play_s->_lcd_goto
  1152 ;;   _Play_s->_send_string
  1153 ;;   _send_string->_send_char
  1154 ;;   _lcd_goto->_send_config
  1155 ;;   _lcd_clr->_send_config
  1156 ;;   _Init->_send_config
  1157 ;;   _send_char->_delay
  1158 ;;   _send_config->_delay
  1159 ;;   _e_pulse->_delay
  1160 ;;
  1161 ;; Critical Paths under _main in BANK0
  1162 ;;
  1163 ;;   _main->_Spi
  1164 ;;   _Spi->_Record
  1165 ;;
  1166 ;; Critical Paths under _main in BANK1
  1167 ;;
  1168 ;;   None.
  1169 ;;
  1170 ;; Critical Paths under _main in BANK3
  1171 ;;
  1172 ;;   None.
  1173 ;;
  1174 ;; Critical Paths under _main in BANK2
  1175 ;;
  1176 ;;   None.
  1177                           
  1178 ;;
  1179 ;;Main: autosize = 0, tempsize = 1, incstack = 0, save=0
  1180 ;;
  1181                           
  1182 ;;
  1183 ;;Call Graph Tables:
  1184 ;;
  1185 ;; ---------------------------------------------------------------------------------
  1186 ;; (Depth) Function   	        Calls       Base Space   Used Autos Params    Refs
  1187 ;; ---------------------------------------------------------------------------------
  1188 ;; (0) _main                                                 2     2      0   11930
  1189 ;;                                              3 BANK0      2     2      0
  1190 ;;                               _Init
  1191 ;;                            _lcd_clr
  1192 ;;                           _lcd_goto
  1193 ;;                        _send_string
  1194 ;;                              _Stand
  1195 ;;                              _Erase
  1196 ;;                                _Spi
  1197 ;; ---------------------------------------------------------------------------------
  1198 ;; (1) _Spi                                                  2     2      0    6750
  1199 ;;                                              1 BANK0      2     2      0
  1200 ;;                _uc_send_receive_spi
  1201 ;;                          _tmr_delay
  1202 ;;                            _lcd_clr
  1203 ;;                           _lcd_goto
  1204 ;;                        _send_string
  1205 ;;                             _Record
  1206 ;;                               _Play
  1207 ;; ---------------------------------------------------------------------------------
  1208 ;; (2) _Record                                               2     2      0    4305
  1209 ;;                                             13 COMMON     1     1      0
  1210 ;;                                              0 BANK0      1     1      0
  1211 ;;                            _lcd_clr
  1212 ;;                           _lcd_goto
  1213 ;;                        _send_string
  1214 ;;                                _mic
  1215 ;;                             _analog
  1216 ;; ---------------------------------------------------------------------------------
  1217 ;; (3) _analog                                               0     0      0    1860
  1218 ;;                _uc_send_receive_spi
  1219 ;;                          _tmr_delay
  1220 ;;                           _location
  1221 ;; ---------------------------------------------------------------------------------
  1222 ;; (3) _mic                                                  0     0      0    1860
  1223 ;;                _uc_send_receive_spi
  1224 ;;                          _tmr_delay
  1225 ;;                           _location
  1226 ;; ---------------------------------------------------------------------------------
  1227 ;; (1) _Stand                                                2     2      0    2579
  1228 ;;                                             13 COMMON     1     1      0
  1229 ;;                                              0 BANK0      1     1      0
  1230 ;;                _uc_send_receive_spi
  1231 ;;                            _lcd_clr
  1232 ;;                           _lcd_goto
  1233 ;;                        _send_string
  1234 ;;                             _Play_s
  1235 ;;                             _Option
  1236 ;;                            _Forward
  1237 ;; ---------------------------------------------------------------------------------
  1238 ;; (4) _location                                             2     2      0    1793
  1239 ;;                                             11 COMMON     2     2      0
  1240 ;;                            _lcd_clr
  1241 ;;                           _lcd_goto
  1242 ;;                        _send_string
  1243 ;;                          _message2r
  1244 ;;                          _message1r
  1245 ;; ---------------------------------------------------------------------------------
  1246 ;; (2) _Option                                               2     2      0    1122
  1247 ;;                                             11 COMMON     2     2      0
  1248 ;;                            _lcd_clr
  1249 ;;                           _lcd_goto
  1250 ;;                        _send_string
  1251 ;;                           _Record_s
  1252 ;; ---------------------------------------------------------------------------------
  1253 ;; (2) _Play                                                 2     2      0    1793
  1254 ;;                                             11 COMMON     2     2      0
  1255 ;;                            _lcd_clr
  1256 ;;                           _lcd_goto
  1257 ;;                        _send_string
  1258 ;;                          _message2p
  1259 ;;                          _message1p
  1260 ;; ---------------------------------------------------------------------------------
  1261 ;; (1) _Erase                                                2     2      0    1793
  1262 ;;                                             11 COMMON     2     2      0
  1263 ;;                            _lcd_clr
  1264 ;;                           _lcd_goto
  1265 ;;                        _send_string
  1266 ;;                            _g_erase
  1267 ;;                              _erase
  1268 ;; ---------------------------------------------------------------------------------
  1269 ;; (2) _erase                                                0     0      0     604
  1270 ;;                _uc_send_receive_spi
  1271 ;;                          _tmr_delay
  1272 ;;                            _lcd_clr
  1273 ;;                           _lcd_goto
  1274 ;;                        _send_string
  1275 ;; ---------------------------------------------------------------------------------
  1276 ;; (2) _g_erase                                              0     0      0     604
  1277 ;;                _uc_send_receive_spi
  1278 ;;                          _tmr_delay
  1279 ;;                            _lcd_clr
  1280 ;;                           _lcd_goto
  1281 ;;                        _send_string
  1282 ;; ---------------------------------------------------------------------------------
  1283 ;; (3) _Record_s                                             0     0      0     537
  1284 ;;                            _lcd_clr
  1285 ;;                           _lcd_goto
  1286 ;;                        _send_string
  1287 ;; ---------------------------------------------------------------------------------
  1288 ;; (5) _message1r                                            0     0      0     604
  1289 ;;                _uc_send_receive_spi
  1290 ;;                            _lcd_clr
  1291 ;;                           _lcd_goto
  1292 ;;                        _send_string
  1293 ;;                          _tmr_delay
  1294 ;; ---------------------------------------------------------------------------------
  1295 ;; (5) _message2r                                            0     0      0     604
  1296 ;;                _uc_send_receive_spi
  1297 ;;                            _lcd_clr
  1298 ;;                           _lcd_goto
  1299 ;;                        _send_string
  1300 ;;                          _tmr_delay
  1301 ;; ---------------------------------------------------------------------------------
  1302 ;; (3) _message1p                                            0     0      0     604
  1303 ;;                _uc_send_receive_spi
  1304 ;;                            _lcd_clr
  1305 ;;                           _lcd_goto
  1306 ;;                        _send_string
  1307 ;;                          _tmr_delay
  1308 ;; ---------------------------------------------------------------------------------
  1309 ;; (3) _message2p                                            0     0      0     604
  1310 ;;                _uc_send_receive_spi
  1311 ;;                            _lcd_clr
  1312 ;;                           _lcd_goto
  1313 ;;                        _send_string
  1314 ;;                          _tmr_delay
  1315 ;; ---------------------------------------------------------------------------------
  1316 ;; (2) _Forward                                              0     0      0     425
  1317 ;;                           _lcd_goto
  1318 ;;                        _send_string
  1319 ;;                          _tmr_delay
  1320 ;; ---------------------------------------------------------------------------------
  1321 ;; (2) _Play_s                                               0     0      0     425
  1322 ;;                           _lcd_goto
  1323 ;;                        _send_string
  1324 ;;                          _tmr_delay
  1325 ;; ---------------------------------------------------------------------------------
  1326 ;; (4) _send_string                                          2     0      2     179
  1327 ;;                                              9 COMMON     2     0      2
  1328 ;;                          _send_char
  1329 ;; ---------------------------------------------------------------------------------
  1330 ;; (4) _lcd_goto                                             2     2      0     201
  1331 ;;                                              9 COMMON     2     2      0
  1332 ;;                        _send_config
  1333 ;; ---------------------------------------------------------------------------------
  1334 ;; (4) _lcd_clr                                              0     0      0     157
  1335 ;;                        _send_config
  1336 ;;                              _delay
  1337 ;; ---------------------------------------------------------------------------------
  1338 ;; (1) _Init                                                 0     0      0     179
  1339 ;;                        _send_config
  1340 ;;                     _spi_initialize
  1341 ;;                _uc_send_receive_spi
  1342 ;;                          _tmr_delay
  1343 ;; ---------------------------------------------------------------------------------
  1344 ;; (5) _send_char                                            1     1      0     112
  1345 ;;                                              8 COMMON     1     1      0
  1346 ;;                              _delay
  1347 ;;                            _e_pulse
  1348 ;; ---------------------------------------------------------------------------------
  1349 ;; (5) _send_config                                          1     1      0     112
  1350 ;;                                              8 COMMON     1     1      0
  1351 ;;                              _delay
  1352 ;;                            _e_pulse
  1353 ;; ---------------------------------------------------------------------------------
  1354 ;; (6) _e_pulse                                              0     0      0      45
  1355 ;;                              _delay
  1356 ;; ---------------------------------------------------------------------------------
  1357 ;; (7) _delay                                                8     4      4      45
  1358 ;;                                              0 COMMON     8     4      4
  1359 ;; ---------------------------------------------------------------------------------
  1360 ;; (4) _tmr_delay                                            2     0      2      45
  1361 ;;                                              0 COMMON     2     0      2
  1362 ;; ---------------------------------------------------------------------------------
  1363 ;; (4) _uc_send_receive_spi                                  1     1      0      22
  1364 ;;                                              0 COMMON     1     1      0
  1365 ;; ---------------------------------------------------------------------------------
  1366 ;; (2) _spi_initialize                                       0     0      0       0
  1367 ;; ---------------------------------------------------------------------------------
  1368 ;; Estimated maximum stack depth 7
  1369 ;; ---------------------------------------------------------------------------------
  1370                           
  1371 ;; Call Graph Graphs:
  1372                           
  1373 ;; _main (ROOT)
  1374 ;;   _Init
  1375 ;;     _send_config
  1376 ;;       _delay
  1377 ;;       _e_pulse
  1378 ;;         _delay
  1379 ;;     _spi_initialize
  1380 ;;     _uc_send_receive_spi
  1381 ;;     _tmr_delay
  1382 ;;   _lcd_clr
  1383 ;;     _send_config
  1384 ;;       _delay
  1385 ;;       _e_pulse
  1386 ;;         _delay
  1387 ;;     _delay
  1388 ;;   _lcd_goto
  1389 ;;     _send_config
  1390 ;;       _delay
  1391 ;;       _e_pulse
  1392 ;;         _delay
  1393 ;;   _send_string
  1394 ;;     _send_char
  1395 ;;       _delay
  1396 ;;       _e_pulse
  1397 ;;         _delay
  1398 ;;   _Stand
  1399 ;;     _uc_send_receive_spi
  1400 ;;     _lcd_clr
  1401 ;;       _send_config
  1402 ;;         _delay
  1403 ;;         _e_pulse
  1404 ;;           _delay
  1405 ;;       _delay
  1406 ;;     _lcd_goto
  1407 ;;       _send_config
  1408 ;;         _delay
  1409 ;;         _e_pulse
  1410 ;;           _delay
  1411 ;;     _send_string
  1412 ;;       _send_char
  1413 ;;         _delay
  1414 ;;         _e_pulse
  1415 ;;           _delay
  1416 ;;     _Play_s
  1417 ;;       _lcd_goto
  1418 ;;         _send_config
  1419 ;;           _delay
  1420 ;;           _e_pulse
  1421 ;;             _delay
  1422 ;;       _send_string
  1423 ;;         _send_char
  1424 ;;           _delay
  1425 ;;           _e_pulse
  1426 ;;             _delay
  1427 ;;       _tmr_delay
  1428 ;;     _Option
  1429 ;;       _lcd_clr
  1430 ;;         _send_config
  1431 ;;           _delay
  1432 ;;           _e_pulse
  1433 ;;             _delay
  1434 ;;         _delay
  1435 ;;       _lcd_goto
  1436 ;;         _send_config
  1437 ;;           _delay
  1438 ;;           _e_pulse
  1439 ;;             _delay
  1440 ;;       _send_string
  1441 ;;         _send_char
  1442 ;;           _delay
  1443 ;;           _e_pulse
  1444 ;;             _delay
  1445 ;;       _Record_s
  1446 ;;         _lcd_clr
  1447 ;;           _send_config
  1448 ;;             _delay
  1449 ;;             _e_pulse
  1450 ;;               _delay
  1451 ;;           _delay
  1452 ;;         _lcd_goto
  1453 ;;           _send_config
  1454 ;;             _delay
  1455 ;;             _e_pulse
  1456 ;;               _delay
  1457 ;;         _send_string
  1458 ;;           _send_char
  1459 ;;             _delay
  1460 ;;             _e_pulse
  1461 ;;               _delay
  1462 ;;     _Forward
  1463 ;;       _lcd_goto
  1464 ;;         _send_config
  1465 ;;           _delay
  1466 ;;           _e_pulse
  1467 ;;             _delay
  1468 ;;       _send_string
  1469 ;;         _send_char
  1470 ;;           _delay
  1471 ;;           _e_pulse
  1472 ;;             _delay
  1473 ;;       _tmr_delay
  1474 ;;   _Erase
  1475 ;;     _lcd_clr
  1476 ;;       _send_config
  1477 ;;         _delay
  1478 ;;         _e_pulse
  1479 ;;           _delay
  1480 ;;       _delay
  1481 ;;     _lcd_goto
  1482 ;;       _send_config
  1483 ;;         _delay
  1484 ;;         _e_pulse
  1485 ;;           _delay
  1486 ;;     _send_string
  1487 ;;       _send_char
  1488 ;;         _delay
  1489 ;;         _e_pulse
  1490 ;;           _delay
  1491 ;;     _g_erase
  1492 ;;       _uc_send_receive_spi
  1493 ;;       _tmr_delay
  1494 ;;       _lcd_clr
  1495 ;;         _send_config
  1496 ;;           _delay
  1497 ;;           _e_pulse
  1498 ;;             _delay
  1499 ;;         _delay
  1500 ;;       _lcd_goto
  1501 ;;         _send_config
  1502 ;;           _delay
  1503 ;;           _e_pulse
  1504 ;;             _delay
  1505 ;;       _send_string
  1506 ;;         _send_char
  1507 ;;           _delay
  1508 ;;           _e_pulse
  1509 ;;             _delay
  1510 ;;     _erase
  1511 ;;       _uc_send_receive_spi
  1512 ;;       _tmr_delay
  1513 ;;       _lcd_clr
  1514 ;;         _send_config
  1515 ;;           _delay
  1516 ;;           _e_pulse
  1517 ;;             _delay
  1518 ;;         _delay
  1519 ;;       _lcd_goto
  1520 ;;         _send_config
  1521 ;;           _delay
  1522 ;;           _e_pulse
  1523 ;;             _delay
  1524 ;;       _send_string
  1525 ;;         _send_char
  1526 ;;           _delay
  1527 ;;           _e_pulse
  1528 ;;             _delay
  1529 ;;   _Spi
  1530 ;;     _uc_send_receive_spi
  1531 ;;     _tmr_delay
  1532 ;;     _lcd_clr
  1533 ;;       _send_config
  1534 ;;         _delay
  1535 ;;         _e_pulse
  1536 ;;           _delay
  1537 ;;       _delay
  1538 ;;     _lcd_goto
  1539 ;;       _send_config
  1540 ;;         _delay
  1541 ;;         _e_pulse
  1542 ;;           _delay
  1543 ;;     _send_string
  1544 ;;       _send_char
  1545 ;;         _delay
  1546 ;;         _e_pulse
  1547 ;;           _delay
  1548 ;;     _Record
  1549 ;;       _lcd_clr
  1550 ;;         _send_config
  1551 ;;           _delay
  1552 ;;           _e_pulse
  1553 ;;             _delay
  1554 ;;         _delay
  1555 ;;       _lcd_goto
  1556 ;;         _send_config
  1557 ;;           _delay
  1558 ;;           _e_pulse
  1559 ;;             _delay
  1560 ;;       _send_string
  1561 ;;         _send_char
  1562 ;;           _delay
  1563 ;;           _e_pulse
  1564 ;;             _delay
  1565 ;;       _mic
  1566 ;;         _uc_send_receive_spi
  1567 ;;         _tmr_delay
  1568 ;;         _location
  1569 ;;           _lcd_clr
  1570 ;;             _send_config
  1571 ;;               _delay
  1572 ;;               _e_pulse
  1573 ;;                 _delay
  1574 ;;             _delay
  1575 ;;           _lcd_goto
  1576 ;;             _send_config
  1577 ;;               _delay
  1578 ;;               _e_pulse
  1579 ;;                 _delay
  1580 ;;           _send_string
  1581 ;;             _send_char
  1582 ;;               _delay
  1583 ;;               _e_pulse
  1584 ;;                 _delay
  1585 ;;           _message2r
  1586 ;;             _uc_send_receive_spi
  1587 ;;             _lcd_clr
  1588 ;;               _send_config
  1589 ;;                 _delay
  1590 ;;                 _e_pulse
  1591 ;;                   _delay
  1592 ;;               _delay
  1593 ;;             _lcd_goto
  1594 ;;               _send_config
  1595 ;;                 _delay
  1596 ;;                 _e_pulse
  1597 ;;                   _delay
  1598 ;;             _send_string
  1599 ;;               _send_char
  1600 ;;                 _delay
  1601 ;;                 _e_pulse
  1602 ;;                   _delay
  1603 ;;             _tmr_delay
  1604 ;;           _message1r
  1605 ;;             _uc_send_receive_spi
  1606 ;;             _lcd_clr
  1607 ;;               _send_config
  1608 ;;                 _delay
  1609 ;;                 _e_pulse
  1610 ;;                   _delay
  1611 ;;               _delay
  1612 ;;             _lcd_goto
  1613 ;;               _send_config
  1614 ;;                 _delay
  1615 ;;                 _e_pulse
  1616 ;;                   _delay
  1617 ;;             _send_string
  1618 ;;               _send_char
  1619 ;;                 _delay
  1620 ;;                 _e_pulse
  1621 ;;                   _delay
  1622 ;;             _tmr_delay
  1623 ;;       _analog
  1624 ;;         _uc_send_receive_spi
  1625 ;;         _tmr_delay
  1626 ;;         _location
  1627 ;;           _lcd_clr
  1628 ;;             _send_config
  1629 ;;               _delay
  1630 ;;               _e_pulse
  1631 ;;                 _delay
  1632 ;;             _delay
  1633 ;;           _lcd_goto
  1634 ;;             _send_config
  1635 ;;               _delay
  1636 ;;               _e_pulse
  1637 ;;                 _delay
  1638 ;;           _send_string
  1639 ;;             _send_char
  1640 ;;               _delay
  1641 ;;               _e_pulse
  1642 ;;                 _delay
  1643 ;;           _message2r
  1644 ;;             _uc_send_receive_spi
  1645 ;;             _lcd_clr
  1646 ;;               _send_config
  1647 ;;                 _delay
  1648 ;;                 _e_pulse
  1649 ;;                   _delay
  1650 ;;               _delay
  1651 ;;             _lcd_goto
  1652 ;;               _send_config
  1653 ;;                 _delay
  1654 ;;                 _e_pulse
  1655 ;;                   _delay
  1656 ;;             _send_string
  1657 ;;               _send_char
  1658 ;;                 _delay
  1659 ;;                 _e_pulse
  1660 ;;                   _delay
  1661 ;;             _tmr_delay
  1662 ;;           _message1r
  1663 ;;             _uc_send_receive_spi
  1664 ;;             _lcd_clr
  1665 ;;               _send_config
  1666 ;;                 _delay
  1667 ;;                 _e_pulse
  1668 ;;                   _delay
  1669 ;;               _delay
  1670 ;;             _lcd_goto
  1671 ;;               _send_config
  1672 ;;                 _delay
  1673 ;;                 _e_pulse
  1674 ;;                   _delay
  1675 ;;             _send_string
  1676 ;;               _send_char
  1677 ;;                 _delay
  1678 ;;                 _e_pulse
  1679 ;;                   _delay
  1680 ;;             _tmr_delay
  1681 ;;     _Play
  1682 ;;       _lcd_clr
  1683 ;;         _send_config
  1684 ;;           _delay
  1685 ;;           _e_pulse
  1686 ;;             _delay
  1687 ;;         _delay
  1688 ;;       _lcd_goto
  1689 ;;         _send_config
  1690 ;;           _delay
  1691 ;;           _e_pulse
  1692 ;;             _delay
  1693 ;;       _send_string
  1694 ;;         _send_char
  1695 ;;           _delay
  1696 ;;           _e_pulse
  1697 ;;             _delay
  1698 ;;       _message2p
  1699 ;;         _uc_send_receive_spi
  1700 ;;         _lcd_clr
  1701 ;;           _send_config
  1702 ;;             _delay
  1703 ;;             _e_pulse
  1704 ;;               _delay
  1705 ;;           _delay
  1706 ;;         _lcd_goto
  1707 ;;           _send_config
  1708 ;;             _delay
  1709 ;;             _e_pulse
  1710 ;;               _delay
  1711 ;;         _send_string
  1712 ;;           _send_char
  1713 ;;             _delay
  1714 ;;             _e_pulse
  1715 ;;               _delay
  1716 ;;         _tmr_delay
  1717 ;;       _message1p
  1718 ;;         _uc_send_receive_spi
  1719 ;;         _lcd_clr
  1720 ;;           _send_config
  1721 ;;             _delay
  1722 ;;             _e_pulse
  1723 ;;               _delay
  1724 ;;           _delay
  1725 ;;         _lcd_goto
  1726 ;;           _send_config
  1727 ;;             _delay
  1728 ;;             _e_pulse
  1729 ;;               _delay
  1730 ;;         _send_string
  1731 ;;           _send_char
  1732 ;;             _delay
  1733 ;;             _e_pulse
  1734 ;;               _delay
  1735 ;;         _tmr_delay
  1736 ;;
  1737                           
  1738 ;; Address spaces:
  1739                           
  1740 ;;Name               Size   Autos  Total    Cost      Usage
  1741 ;;BANK3               60      0       0       9        0.0%
  1742 ;;BITBANK3            60      0       0       8        0.0%
  1743 ;;SFR3                 0      0       0       4        0.0%
  1744 ;;BITSFR3              0      0       0       4        0.0%
  1745 ;;BANK2               60      0       0      11        0.0%
  1746 ;;BITBANK2            60      0       0      10        0.0%
  1747 ;;SFR2                 0      0       0       5        0.0%
  1748 ;;BITSFR2              0      0       0       5        0.0%
  1749 ;;SFR1                 0      0       0       2        0.0%
  1750 ;;BITSFR1              0      0       0       2        0.0%
  1751 ;;BANK1               50      0       0       7        0.0%
  1752 ;;BITBANK1            50      0       0       6        0.0%
  1753 ;;CODE                 0      0       0       0        0.0%
  1754 ;;DATA                 0      0      27      12        0.0%
  1755 ;;ABS                  0      0      1E       3        0.0%
  1756 ;;NULL                 0      0       0       0        0.0%
  1757 ;;STACK                0      0       9       2        0.0%
  1758 ;;BANK0               50      5      10       5       20.0%
  1759 ;;BITBANK0            50      0       0       4        0.0%
  1760 ;;SFR0                 0      0       0       1        0.0%
  1761 ;;BITSFR0              0      0       0       1        0.0%
  1762 ;;COMMON               E      E       E       1      100.0%
  1763 ;;BITCOMMON            E      0       0       0        0.0%
  1764 ;;EEDATA             100      0       0       0        0.0%
  1765                           
  1766                           	global	_main
  1767                           psect	maintext,global,class=CODE,delta=2
  1768                           global __pmaintext
  1769  06A4                     __pmaintext:
  1770                           
  1771 ;; *************** function _main *****************
  1772 ;; Defined at:
  1773 ;;		line 78 in file "PR17B.c"
  1774 ;; Parameters:    Size  Location     Type
  1775 ;;		None
  1776 ;; Auto vars:     Size  Location     Type
  1777 ;;  j               1    4[BANK0 ] unsigned char 
  1778 ;; Return value:  Size  Location     Type
  1779 ;;		None               void
  1780 ;; Registers used:
  1781 ;;		wreg, fsr0l, fsr0h, status,2, status,0, btemp+1, pclath, cstack
  1782 ;; Tracked objects:
  1783 ;;		On entry : 17F/0
  1784 ;;		On exit  : 0/0
  1785 ;;		Unchanged: 0/0
  1786 ;; Data sizes:     COMMON   BANK0   BANK1   BANK3   BANK2
  1787 ;;      Params:         0       0       0       0       0
  1788 ;;      Locals:         0       1       0       0       0
  1789 ;;      Temps:          0       1       0       0       0
  1790 ;;      Totals:         0       2       0       0       0
  1791 ;;Total ram usage:        2 bytes
  1792 ;; Hardware stack levels required when called:    9
  1793 ;; This function calls:
  1794 ;;		_Init
  1795 ;;		_lcd_clr
  1796 ;;		_lcd_goto
  1797 ;;		_send_string
  1798 ;;		_Stand
  1799 ;;		_Erase
  1800 ;;		_Spi
  1801 ;; This function is called by:
  1802 ;;		Startup code after reset
  1803 ;; This function uses a non-reentrant model
  1804 ;;
  1805                           psect	maintext
  1806                           	file	"PR17B.c"
  1807                           	line	78
  1808                           	global	__size_of_main
  1809  00AD                     	__size_of_main	equ	__end_of_main-_main
  1810                           	
  1811  06A4                     _main:	
  1812 ;; hardware stack exceeded
  1813                           	opt	stack 0
  1814                           ; Regs used in _main: [wreg-fsr0h+status,2+status,0+btemp+1+pclath+cstack]
  1815                           	line	79
  1816                           	
  1817  06A4                     l3322:	
  1818                           ;PR17B.c: 79: unsigned char j=0;
  1819  06A4  1003               	clrc
  1820  06A5  3000               	movlw	0
  1821  06A6  1803               	btfsc	status,0
  1822  06A7  3001               	movlw	1
  1823  06A8  1283               	bcf	status, 5	;RP0=0, select bank0
  1824  06A9  1303               	bcf	status, 6	;RP1=0, select bank0
  1825  06AA  00AC               	movwf	(main@j)
  1826                           	line	81
  1827                           	
  1828  06AB                     l3324:	
  1829                           ;PR17B.c: 81: Init();
  1830  06AB  120A  118A  24E1   	fcall	_Init
              120A  118A         
  1831                           	line	82
  1832                           	
  1833  06B0                     l3326:	
  1834                           ;PR17B.c: 82: lcd_clr();
  1835  06B0  120A  158A  25CD   	fcall	_lcd_clr
              120A  118A         
  1836                           	line	83
  1837                           	
  1838  06B5                     l3328:	
  1839                           ;PR17B.c: 83: lcd_goto(0);
  1840  06B5  3000               	movlw	(0)
  1841  06B6  120A  158A  2628   	fcall	_lcd_goto
              120A  118A         
  1842                           	line	84
  1843                           	
  1844  06BB                     l3330:	
  1845                           ;PR17B.c: 84: send_string("Select mode");
  1846  06BB  305A               	movlw	low(STR_1|8000h)
  1847  06BC  00F9               	movwf	(?_send_string)
  1848  06BD  309F               	movlw	high(STR_1|8000h)
  1849  06BE  00FA               	movwf	((?_send_string))+1
  1850  06BF  120A  158A  26F6   	fcall	_send_string
              120A  118A         
  1851                           	line	85
  1852                           	
  1853  06C4                     l3332:	
  1854                           ;PR17B.c: 85: lcd_goto(20);
  1855  06C4  3014               	movlw	(014h)
  1856  06C5  120A  158A  2628   	fcall	_lcd_goto
              120A  118A         
  1857                           	line	86
  1858                           	
  1859  06CA                     l3334:	
  1860                           ;PR17B.c: 86: send_string(mode[j]);
  1861  06CA  1283               	bcf	status, 5	;RP0=0, select bank0
  1862  06CB  1303               	bcf	status, 6	;RP1=0, select bank0
  1863  06CC  082C               	movf	(main@j),w
  1864  06CD  00AB               	movwf	(??_main+0)+0
  1865  06CE  072B               	addwf	(??_main+0)+0,w
  1866  06CF  3E20               	addlw	_mode&0ffh
  1867  06D0  0084               	movwf	fsr0
  1868  06D1  1383               	bcf	status, 7	;select IRP bank0
  1869  06D2  0800               	movf	indf,w
  1870  06D3  00F9               	movwf	(?_send_string)
  1871  06D4  0A84               	incf	fsr0,f
  1872  06D5  0800               	movf	indf,w
  1873  06D6  00FA               	movwf	(?_send_string+1)
  1874  06D7  120A  158A  26F6   	fcall	_send_string
              120A  118A         
  1875  06DC  2EDD               	goto	l3336
  1876                           	line	88
  1877                           ;PR17B.c: 88: while(1)
  1878                           	
  1879  06DD                     l625:	
  1880                           	line	90
  1881                           	
  1882  06DD                     l3336:	
  1883                           ;PR17B.c: 89: {
  1884                           ;PR17B.c: 90: if( RD5 == 0)
  1885  06DD  1283               	bcf	status, 5	;RP0=0, select bank0
  1886  06DE  1303               	bcf	status, 6	;RP1=0, select bank0
  1887  06DF  1A88               	btfsc	(69/8),(69)&7
  1888  06E0  2EE2               	goto	u3071
  1889  06E1  2EE3               	goto	u3070
  1890  06E2                     u3071:
  1891  06E2  2F1C               	goto	l3352
  1892  06E3                     u3070:
  1893  06E3  2EE5               	goto	l627
  1894                           	line	92
  1895                           	
  1896  06E4                     l3338:	
  1897                           ;PR17B.c: 91: {
  1898                           ;PR17B.c: 92: while(RD5 == 0) continue;
  1899  06E4  2EE5               	goto	l627
  1900                           	
  1901  06E5                     l628:	
  1902                           	
  1903  06E5                     l627:	
  1904  06E5  1E88               	btfss	(69/8),(69)&7
  1905  06E6  2EE8               	goto	u3081
  1906  06E7  2EE9               	goto	u3080
  1907  06E8                     u3081:
  1908  06E8  2EE5               	goto	l627
  1909  06E9                     u3080:
  1910  06E9  2EEA               	goto	l3340
  1911                           	
  1912  06EA                     l629:	
  1913                           	line	93
  1914                           	
  1915  06EA                     l3340:	
  1916                           ;PR17B.c: 93: j++;
  1917  06EA  3001               	movlw	(01h)
  1918  06EB  00AB               	movwf	(??_main+0)+0
  1919  06EC  082B               	movf	(??_main+0)+0,w
  1920  06ED  07AC               	addwf	(main@j),f
  1921                           	line	94
  1922                           	
  1923  06EE                     l3342:	
  1924                           ;PR17B.c: 94: if(j>2) j =0;
  1925  06EE  3003               	movlw	(03h)
  1926  06EF  022C               	subwf	(main@j),w
  1927  06F0  1C03               	skipc
  1928  06F1  2EF3               	goto	u3091
  1929  06F2  2EF4               	goto	u3090
  1930  06F3                     u3091:
  1931  06F3  2EFA               	goto	l3346
  1932  06F4                     u3090:
  1933                           	
  1934  06F4                     l3344:	
  1935  06F4  1003               	clrc
  1936  06F5  3000               	movlw	0
  1937  06F6  1803               	btfsc	status,0
  1938  06F7  3001               	movlw	1
  1939  06F8  00AC               	movwf	(main@j)
  1940  06F9  2EFA               	goto	l3346
  1941                           	
  1942  06FA                     l630:	
  1943                           	line	95
  1944                           	
  1945  06FA                     l3346:	
  1946                           ;PR17B.c: 95: lcd_goto(20);
  1947  06FA  3014               	movlw	(014h)
  1948  06FB  120A  158A  2628   	fcall	_lcd_goto
              120A  118A         
  1949                           	line	96
  1950                           	
  1951  0700                     l3348:	
  1952                           ;PR17B.c: 96: send_string(mode[j]);
  1953  0700  1283               	bcf	status, 5	;RP0=0, select bank0
  1954  0701  1303               	bcf	status, 6	;RP1=0, select bank0
  1955  0702  082C               	movf	(main@j),w
  1956  0703  00AB               	movwf	(??_main+0)+0
  1957  0704  072B               	addwf	(??_main+0)+0,w
  1958  0705  3E20               	addlw	_mode&0ffh
  1959  0706  0084               	movwf	fsr0
  1960  0707  1383               	bcf	status, 7	;select IRP bank0
  1961  0708  0800               	movf	indf,w
  1962  0709  00F9               	movwf	(?_send_string)
  1963  070A  0A84               	incf	fsr0,f
  1964  070B  0800               	movf	indf,w
  1965  070C  00FA               	movwf	(?_send_string+1)
  1966  070D  120A  158A  26F6   	fcall	_send_string
              120A  118A         
  1967                           	line	97
  1968                           	
  1969  0712                     l3350:	
  1970                           ;PR17B.c: 97: send_string("            ");
  1971  0712  30DF               	movlw	low(STR_2|8000h)
  1972  0713  00F9               	movwf	(?_send_string)
  1973  0714  309E               	movlw	high(STR_2|8000h)
  1974  0715  00FA               	movwf	((?_send_string))+1
  1975  0716  120A  158A  26F6   	fcall	_send_string
              120A  118A         
  1976  071B  2F1C               	goto	l3352
  1977                           	line	98
  1978                           	
  1979  071C                     l626:	
  1980                           	line	99
  1981                           	
  1982  071C                     l3352:	
  1983                           ;PR17B.c: 98: }
  1984                           ;PR17B.c: 99: if(RD4 == 0)
  1985  071C  1283               	bcf	status, 5	;RP0=0, select bank0
  1986  071D  1303               	bcf	status, 6	;RP1=0, select bank0
  1987  071E  1A08               	btfsc	(68/8),(68)&7
  1988  071F  2F21               	goto	u3101
  1989  0720  2F22               	goto	u3100
  1990  0721                     u3101:
  1991  0721  2EDD               	goto	l3336
  1992  0722                     u3100:
  1993  0722  2F24               	goto	l632
  1994                           	line	101
  1995                           	
  1996  0723                     l3354:	
  1997                           ;PR17B.c: 100: {
  1998                           ;PR17B.c: 101: while(RD4 == 0)continue;
  1999  0723  2F24               	goto	l632
  2000                           	
  2001  0724                     l633:	
  2002                           	
  2003  0724                     l632:	
  2004  0724  1E08               	btfss	(68/8),(68)&7
  2005  0725  2F27               	goto	u3111
  2006  0726  2F28               	goto	u3110
  2007  0727                     u3111:
  2008  0727  2F24               	goto	l632
  2009  0728                     u3110:
  2010  0728  2F43               	goto	l3364
  2011                           	
  2012  0729                     l634:	
  2013                           	line	102
  2014                           ;PR17B.c: 102: switch(j)
  2015  0729  2F43               	goto	l3364
  2016                           	line	105
  2017                           ;PR17B.c: 103: {
  2018                           ;PR17B.c: 105: case 1 : Stand();
  2019                           	
  2020  072A                     l636:	
  2021                           	
  2022  072A                     l3356:	
  2023  072A  120A  118A  2751   	fcall	_Stand
              120A  118A         
  2024                           	line	106
  2025                           ;PR17B.c: 106: break;
  2026  072F  2EDD               	goto	l3336
  2027                           	line	107
  2028                           ;PR17B.c: 107: case 2 : Erase();
  2029                           	
  2030  0730                     l638:	
  2031                           	
  2032  0730                     l3358:	
  2033  0730  120A  118A  224E   	fcall	_Erase
              120A  118A         
  2034                           	line	108
  2035                           ;PR17B.c: 108: break;
  2036  0735  2EDD               	goto	l3336
  2037                           	line	109
  2038                           ;PR17B.c: 109: default : Spi();
  2039                           	
  2040  0736                     l639:	
  2041                           	
  2042  0736                     l3360:	
  2043  0736  120A  118A  25FF   	fcall	_Spi
              120A  118A         
  2044                           	line	110
  2045                           	
  2046  073B                     l3362:	
  2047                           ;PR17B.c: 110: j=0;
  2048  073B  1003               	clrc
  2049  073C  3000               	movlw	0
  2050  073D  1803               	btfsc	status,0
  2051  073E  3001               	movlw	1
  2052  073F  1283               	bcf	status, 5	;RP0=0, select bank0
  2053  0740  1303               	bcf	status, 6	;RP1=0, select bank0
  2054  0741  00AC               	movwf	(main@j)
  2055                           	line	111
  2056                           ;PR17B.c: 111: }
  2057  0742  2EDD               	goto	l3336
  2058                           	line	102
  2059                           	
  2060  0743                     l635:	
  2061                           	
  2062  0743                     l3364:	
  2063  0743  082C               	movf	(main@j),w
  2064                           	; Switch size 1, requested type "space"
  2065                           ; Number of cases is 2, Range of values is 1 to 2
  2066                           ; switch strategies available:
  2067                           ; Name         Bytes Cycles
  2068                           ; simple_byte     7     4 (average)
  2069                           ; direct_byte    28    22 (fixed)
  2070                           ;	Chosen strategy is simple_byte
  2071                           
  2072  0744  3A01               	xorlw	1^0	; case 1
  2073  0745  1903               	skipnz
  2074  0746  2F2A               	goto	l3356
  2075  0747  3A03               	xorlw	2^1	; case 2
  2076  0748  1903               	skipnz
  2077  0749  2F30               	goto	l3358
  2078  074A  2F36               	goto	l3360
  2079                           
  2080                           	line	111
  2081                           	
  2082  074B                     l637:	
  2083  074B  2EDD               	goto	l3336
  2084                           	line	112
  2085                           	
  2086  074C                     l631:	
  2087  074C  2EDD               	goto	l3336
  2088                           	line	113
  2089                           	
  2090  074D                     l640:	
  2091                           	line	88
  2092  074D  2EDD               	goto	l3336
  2093                           	
  2094  074E                     l641:	
  2095                           	line	114
  2096                           	
  2097  074E                     l642:	
  2098                           	global	start
  2099  074E  120A  118A  2800   	ljmp	start
  2100                           	opt stack 0
  2101                           GLOBAL	__end_of_main
  2102  0751                     	__end_of_main:
  2103 ;; =============== function _main ends ============
  2104                           
  2105                           	signat	_main,88
  2106                           	global	_Spi
  2107                           psect	text721,local,class=CODE,delta=2
  2108                           global __ptext721
  2109  05FF                     __ptext721:
  2110                           
  2111 ;; *************** function _Spi *****************
  2112 ;; Defined at:
  2113 ;;		line 277 in file "PR17B.c"
  2114 ;; Parameters:    Size  Location     Type
  2115 ;;		None
  2116 ;; Auto vars:     Size  Location     Type
  2117 ;;  i               1    2[BANK0 ] unsigned char 
  2118 ;; Return value:  Size  Location     Type
  2119 ;;		None               void
  2120 ;; Registers used:
  2121 ;;		wreg, fsr0l, fsr0h, status,2, status,0, btemp+1, pclath, cstack
  2122 ;; Tracked objects:
  2123 ;;		On entry : 0/0
  2124 ;;		On exit  : 0/0
  2125 ;;		Unchanged: 0/0
  2126 ;; Data sizes:     COMMON   BANK0   BANK1   BANK3   BANK2
  2127 ;;      Params:         0       0       0       0       0
  2128 ;;      Locals:         0       1       0       0       0
  2129 ;;      Temps:          0       1       0       0       0
  2130 ;;      Totals:         0       2       0       0       0
  2131 ;;Total ram usage:        2 bytes
  2132 ;; Hardware stack levels used:    1
  2133 ;; Hardware stack levels required when called:    8
  2134 ;; This function calls:
  2135 ;;		_uc_send_receive_spi
  2136 ;;		_tmr_delay
  2137 ;;		_lcd_clr
  2138 ;;		_lcd_goto
  2139 ;;		_send_string
  2140 ;;		_Record
  2141 ;;		_Play
  2142 ;; This function is called by:
  2143 ;;		_main
  2144 ;; This function uses a non-reentrant model
  2145 ;;
  2146                           psect	text721
  2147                           	file	"PR17B.c"
  2148                           	line	277
  2149                           	global	__size_of_Spi
  2150  00A5                     	__size_of_Spi	equ	__end_of_Spi-_Spi
  2151                           	
  2152  05FF                     _Spi:	
  2153 ;; hardware stack exceeded
  2154                           	opt	stack 0
  2155                           ; Regs used in _Spi: [wreg-fsr0h+status,2+status,0+btemp+1+pclath+cstack]
  2156                           	
  2157  05FF                     l3272:	
  2158  05FF  1283               	bcf	status, 5	;RP0=0, select bank0
  2159  0600  1303               	bcf	status, 6	;RP1=0, select bank0
  2160  0601  01AA               	clrf	(Spi@i)
  2161  0602  1403               	bsf	status,0
  2162  0603  0DAA               	rlf	(Spi@i),f
  2163                           	line	278
  2164                           	
  2165  0604                     l3274:	
  2166                           ;PR17B.c: 278: RE1 = 0;
  2167  0604  1089               	bcf	(73/8),(73)&7
  2168                           	line	279
  2169                           	
  2170  0605                     l3276:	
  2171                           ;PR17B.c: 279: uc_send_receive_spi(0b10000000);
  2172  0605  3080               	movlw	(080h)
  2173  0606  120A  158A  25BB   	fcall	_uc_send_receive_spi
              120A  118A         
  2174                           	line	280
  2175                           	
  2176  060B                     l3278:	
  2177                           ;PR17B.c: 280: uc_send_receive_spi(0b00000000);
  2178  060B  3000               	movlw	(0)
  2179  060C  120A  158A  25BB   	fcall	_uc_send_receive_spi
              120A  118A         
  2180                           	line	281
  2181                           	
  2182  0611                     l3280:	
  2183                           ;PR17B.c: 281: RE1 = 1;
  2184  0611  1283               	bcf	status, 5	;RP0=0, select bank0
  2185  0612  1303               	bcf	status, 6	;RP1=0, select bank0
  2186  0613  1489               	bsf	(73/8),(73)&7
  2187                           	line	282
  2188                           	
  2189  0614                     l3282:	
  2190                           ;PR17B.c: 282: tmr_delay(10);
  2191  0614  300A               	movlw	low(0Ah)
  2192  0615  00F0               	movwf	(?_tmr_delay)
  2193  0616  3000               	movlw	high(0Ah)
  2194  0617  00F1               	movwf	((?_tmr_delay))+1
  2195  0618  120A  158A  26A4   	fcall	_tmr_delay
              120A  118A         
  2196                           	line	283
  2197                           	
  2198  061D                     l3284:	
  2199                           ;PR17B.c: 283: RD3 = 1;
  2200  061D  1283               	bcf	status, 5	;RP0=0, select bank0
  2201  061E  1303               	bcf	status, 6	;RP1=0, select bank0
  2202  061F  1588               	bsf	(67/8),(67)&7
  2203                           	line	284
  2204                           	
  2205  0620                     l3286:	
  2206                           ;PR17B.c: 284: lcd_clr();
  2207  0620  120A  158A  25CD   	fcall	_lcd_clr
              120A  118A         
  2208                           	line	285
  2209                           	
  2210  0625                     l3288:	
  2211                           ;PR17B.c: 285: lcd_goto(0);
  2212  0625  3000               	movlw	(0)
  2213  0626  120A  158A  2628   	fcall	_lcd_goto
              120A  118A         
  2214                           	line	286
  2215                           	
  2216  062B                     l3290:	
  2217                           ;PR17B.c: 286: send_string("Switch mode");
  2218  062B  304E               	movlw	low(STR_3|8000h)
  2219  062C  00F9               	movwf	(?_send_string)
  2220  062D  309F               	movlw	high(STR_3|8000h)
  2221  062E  00FA               	movwf	((?_send_string))+1
  2222  062F  120A  158A  26F6   	fcall	_send_string
              120A  118A         
  2223                           	line	287
  2224                           	
  2225  0634                     l3292:	
  2226                           ;PR17B.c: 287: lcd_goto(20);
  2227  0634  3014               	movlw	(014h)
  2228  0635  120A  158A  2628   	fcall	_lcd_goto
              120A  118A         
  2229                           	line	288
  2230                           	
  2231  063A                     l3294:	
  2232                           ;PR17B.c: 288: send_string("1. PLAY   ");
  2233  063A  3066               	movlw	low(STR_4|8000h)
  2234  063B  00F9               	movwf	(?_send_string)
  2235  063C  309F               	movlw	high(STR_4|8000h)
  2236  063D  00FA               	movwf	((?_send_string))+1
  2237  063E  120A  158A  26F6   	fcall	_send_string
              120A  118A         
  2238  0643  2E44               	goto	l3296
  2239                           	line	289
  2240                           ;PR17B.c: 289: while(1)
  2241                           	
  2242  0644                     l695:	
  2243                           	line	291
  2244                           	
  2245  0644                     l3296:	
  2246                           ;PR17B.c: 290: {
  2247                           ;PR17B.c: 291: if(RD5 == 0)
  2248  0644  1283               	bcf	status, 5	;RP0=0, select bank0
  2249  0645  1303               	bcf	status, 6	;RP1=0, select bank0
  2250  0646  1A88               	btfsc	(69/8),(69)&7
  2251  0647  2E49               	goto	u3031
  2252  0648  2E4A               	goto	u3030
  2253  0649                     u3031:
  2254  0649  2E7C               	goto	l696
  2255  064A                     u3030:
  2256  064A  2E4C               	goto	l697
  2257                           	line	293
  2258                           	
  2259  064B                     l3298:	
  2260                           ;PR17B.c: 292: {
  2261                           ;PR17B.c: 293: while(RD5 == 0) continue;
  2262  064B  2E4C               	goto	l697
  2263                           	
  2264  064C                     l698:	
  2265                           	
  2266  064C                     l697:	
  2267  064C  1E88               	btfss	(69/8),(69)&7
  2268  064D  2E4F               	goto	u3041
  2269  064E  2E50               	goto	u3040
  2270  064F                     u3041:
  2271  064F  2E4C               	goto	l697
  2272  0650                     u3040:
  2273  0650  2E51               	goto	l3300
  2274                           	
  2275  0651                     l699:	
  2276                           	line	294
  2277                           	
  2278  0651                     l3300:	
  2279                           ;PR17B.c: 294: i++;
  2280  0651  3001               	movlw	(01h)
  2281  0652  00A9               	movwf	(??_Spi+0)+0
  2282  0653  0829               	movf	(??_Spi+0)+0,w
  2283  0654  07AA               	addwf	(Spi@i),f
  2284                           	line	295
  2285                           	
  2286  0655                     l3302:	
  2287                           ;PR17B.c: 295: lcd_goto(20);
  2288  0655  3014               	movlw	(014h)
  2289  0656  120A  158A  2628   	fcall	_lcd_goto
              120A  118A         
  2290                           	line	296
  2291                           ;PR17B.c: 296: switch (i)
  2292  065B  2E75               	goto	l3310
  2293                           	line	298
  2294                           ;PR17B.c: 297: {
  2295                           ;PR17B.c: 298: case 2 : send_string("2. RECORD");
  2296                           	
  2297  065C                     l701:	
  2298                           	
  2299  065C                     l3304:	
  2300  065C  3092               	movlw	low(STR_5|8000h)
  2301  065D  00F9               	movwf	(?_send_string)
  2302  065E  309F               	movlw	high(STR_5|8000h)
  2303  065F  00FA               	movwf	((?_send_string))+1
  2304  0660  120A  158A  26F6   	fcall	_send_string
              120A  118A         
  2305                           	line	299
  2306                           ;PR17B.c: 299: break;
  2307  0665  2E7C               	goto	l696
  2308                           	line	301
  2309                           ;PR17B.c: 301: default: send_string("1. PLAY   ");
  2310                           	
  2311  0666                     l703:	
  2312                           	
  2313  0666                     l3306:	
  2314  0666  3066               	movlw	low(STR_6|8000h)
  2315  0667  00F9               	movwf	(?_send_string)
  2316  0668  309F               	movlw	high(STR_6|8000h)
  2317  0669  00FA               	movwf	((?_send_string))+1
  2318  066A  120A  158A  26F6   	fcall	_send_string
              120A  118A         
  2319                           	line	302
  2320                           	
  2321  066F                     l3308:	
  2322                           ;PR17B.c: 302: i =1;
  2323  066F  1283               	bcf	status, 5	;RP0=0, select bank0
  2324  0670  1303               	bcf	status, 6	;RP1=0, select bank0
  2325  0671  01AA               	clrf	(Spi@i)
  2326  0672  1403               	bsf	status,0
  2327  0673  0DAA               	rlf	(Spi@i),f
  2328                           	line	303
  2329                           ;PR17B.c: 303: }
  2330  0674  2E7C               	goto	l696
  2331                           	line	296
  2332                           	
  2333  0675                     l700:	
  2334                           	
  2335  0675                     l3310:	
  2336  0675  1283               	bcf	status, 5	;RP0=0, select bank0
  2337  0676  1303               	bcf	status, 6	;RP1=0, select bank0
  2338  0677  082A               	movf	(Spi@i),w
  2339                           	; Switch size 1, requested type "space"
  2340                           ; Number of cases is 1, Range of values is 2 to 2
  2341                           ; switch strategies available:
  2342                           ; Name         Bytes Cycles
  2343                           ; simple_byte     4     3 (average)
  2344                           ; direct_byte    25    22 (fixed)
  2345                           ;	Chosen strategy is simple_byte
  2346                           
  2347  0678  3A02               	xorlw	2^0	; case 2
  2348  0679  1903               	skipnz
  2349  067A  2E5C               	goto	l3304
  2350  067B  2E66               	goto	l3306
  2351                           
  2352                           	line	303
  2353                           	
  2354  067C                     l702:	
  2355                           	line	304
  2356                           	
  2357  067C                     l696:	
  2358                           	line	305
  2359                           ;PR17B.c: 304: }
  2360                           ;PR17B.c: 305: if(RD4 == 0)
  2361  067C  1283               	bcf	status, 5	;RP0=0, select bank0
  2362  067D  1303               	bcf	status, 6	;RP1=0, select bank0
  2363  067E  1A08               	btfsc	(68/8),(68)&7
  2364  067F  2E81               	goto	u3051
  2365  0680  2E82               	goto	u3050
  2366  0681                     u3051:
  2367  0681  2E44               	goto	l3296
  2368  0682                     u3050:
  2369  0682  2E84               	goto	l705
  2370                           	line	307
  2371                           	
  2372  0683                     l3312:	
  2373                           ;PR17B.c: 306: {
  2374                           ;PR17B.c: 307: while(RD4 == 0) continue;
  2375  0683  2E84               	goto	l705
  2376                           	
  2377  0684                     l706:	
  2378                           	
  2379  0684                     l705:	
  2380  0684  1E08               	btfss	(68/8),(68)&7
  2381  0685  2E87               	goto	u3061
  2382  0686  2E88               	goto	u3060
  2383  0687                     u3061:
  2384  0687  2E84               	goto	l705
  2385  0688                     u3060:
  2386  0688  2E9B               	goto	l3320
  2387                           	
  2388  0689                     l707:	
  2389                           	line	308
  2390                           ;PR17B.c: 308: switch (i)
  2391  0689  2E9B               	goto	l3320
  2392                           	line	310
  2393                           ;PR17B.c: 309: {
  2394                           ;PR17B.c: 310: case 2 : Record();
  2395                           	
  2396  068A                     l709:	
  2397                           	
  2398  068A                     l3314:	
  2399  068A  120A  118A  2458   	fcall	_Record
              120A  118A         
  2400                           	line	311
  2401                           ;PR17B.c: 311: break;
  2402  068F  2E44               	goto	l3296
  2403                           	line	312
  2404                           ;PR17B.c: 312: default : Play();
  2405                           	
  2406  0690                     l711:	
  2407                           	
  2408  0690                     l3316:	
  2409  0690  120A  118A  22CF   	fcall	_Play
              120A  118A         
  2410                           	line	313
  2411                           	
  2412  0695                     l3318:	
  2413                           ;PR17B.c: 313: i = 1;
  2414  0695  1283               	bcf	status, 5	;RP0=0, select bank0
  2415  0696  1303               	bcf	status, 6	;RP1=0, select bank0
  2416  0697  01AA               	clrf	(Spi@i)
  2417  0698  1403               	bsf	status,0
  2418  0699  0DAA               	rlf	(Spi@i),f
  2419                           	line	314
  2420                           ;PR17B.c: 314: }
  2421  069A  2E44               	goto	l3296
  2422                           	line	308
  2423                           	
  2424  069B                     l708:	
  2425                           	
  2426  069B                     l3320:	
  2427  069B  082A               	movf	(Spi@i),w
  2428                           	; Switch size 1, requested type "space"
  2429                           ; Number of cases is 1, Range of values is 2 to 2
  2430                           ; switch strategies available:
  2431                           ; Name         Bytes Cycles
  2432                           ; simple_byte     4     3 (average)
  2433                           ; direct_byte    25    22 (fixed)
  2434                           ;	Chosen strategy is simple_byte
  2435                           
  2436  069C  3A02               	xorlw	2^0	; case 2
  2437  069D  1903               	skipnz
  2438  069E  2E8A               	goto	l3314
  2439  069F  2E90               	goto	l3316
  2440                           
  2441                           	line	314
  2442                           	
  2443  06A0                     l710:	
  2444  06A0  2E44               	goto	l3296
  2445                           	line	316
  2446                           	
  2447  06A1                     l704:	
  2448  06A1  2E44               	goto	l3296
  2449                           	line	317
  2450                           	
  2451  06A2                     l712:	
  2452                           	line	289
  2453  06A2  2E44               	goto	l3296
  2454                           	
  2455  06A3                     l713:	
  2456                           	line	318
  2457                           	
  2458  06A3                     l714:	
  2459  06A3  0008               	return
  2460                           	opt stack 0
  2461                           GLOBAL	__end_of_Spi
  2462  06A4                     	__end_of_Spi:
  2463 ;; =============== function _Spi ends ============
  2464                           
  2465                           	signat	_Spi,88
  2466                           	global	_Record
  2467                           psect	text722,local,class=CODE,delta=2
  2468                           global __ptext722
  2469  0458                     __ptext722:
  2470                           
  2471 ;; *************** function _Record *****************
  2472 ;; Defined at:
  2473 ;;		line 407 in file "PR17B.c"
  2474 ;; Parameters:    Size  Location     Type
  2475 ;;		None
  2476 ;; Auto vars:     Size  Location     Type
  2477 ;;  i               1    0[BANK0 ] unsigned char 
  2478 ;; Return value:  Size  Location     Type
  2479 ;;		None               void
  2480 ;; Registers used:
  2481 ;;		wreg, fsr0l, fsr0h, status,2, status,0, btemp+1, pclath, cstack
  2482 ;; Tracked objects:
  2483 ;;		On entry : 0/0
  2484 ;;		On exit  : 0/0
  2485 ;;		Unchanged: 0/0
  2486 ;; Data sizes:     COMMON   BANK0   BANK1   BANK3   BANK2
  2487 ;;      Params:         0       0       0       0       0
  2488 ;;      Locals:         0       1       0       0       0
  2489 ;;      Temps:          1       0       0       0       0
  2490 ;;      Totals:         1       1       0       0       0
  2491 ;;Total ram usage:        2 bytes
  2492 ;; Hardware stack levels used:    1
  2493 ;; Hardware stack levels required when called:    7
  2494 ;; This function calls:
  2495 ;;		_lcd_clr
  2496 ;;		_lcd_goto
  2497 ;;		_send_string
  2498 ;;		_mic
  2499 ;;		_analog
  2500 ;; This function is called by:
  2501 ;;		_Spi
  2502 ;; This function uses a non-reentrant model
  2503 ;;
  2504                           psect	text722
  2505                           	file	"PR17B.c"
  2506                           	line	407
  2507                           	global	__size_of_Record
  2508  0089                     	__size_of_Record	equ	__end_of_Record-_Record
  2509                           	
  2510  0458                     _Record:	
  2511 ;; hardware stack exceeded
  2512                           	opt	stack 0
  2513                           ; Regs used in _Record: [wreg-fsr0h+status,2+status,0+btemp+1+pclath+cstack]
  2514                           	line	408
  2515                           	
  2516  0458                     l3234:	
  2517                           ;PR17B.c: 408: char i =1;
  2518  0458  1283               	bcf	status, 5	;RP0=0, select bank0
  2519  0459  1303               	bcf	status, 6	;RP1=0, select bank0
  2520  045A  01A8               	clrf	(Record@i)
  2521  045B  1403               	bsf	status,0
  2522  045C  0DA8               	rlf	(Record@i),f
  2523                           	line	409
  2524                           	
  2525  045D                     l3236:	
  2526                           ;PR17B.c: 409: lcd_clr();
  2527  045D  120A  158A  25CD   	fcall	_lcd_clr
              120A  118A         
  2528                           	line	410
  2529                           	
  2530  0462                     l3238:	
  2531                           ;PR17B.c: 410: lcd_goto(0);
  2532  0462  3000               	movlw	(0)
  2533  0463  120A  158A  2628   	fcall	_lcd_goto
              120A  118A         
  2534                           	line	411
  2535                           	
  2536  0468                     l3240:	
  2537                           ;PR17B.c: 411: send_string("Option");
  2538  0468  30BD               	movlw	low(STR_16|8000h)
  2539  0469  00F9               	movwf	(?_send_string)
  2540  046A  309F               	movlw	high(STR_16|8000h)
  2541  046B  00FA               	movwf	((?_send_string))+1
  2542  046C  120A  158A  26F6   	fcall	_send_string
              120A  118A         
  2543                           	line	412
  2544                           	
  2545  0471                     l3242:	
  2546                           ;PR17B.c: 412: lcd_goto(20);
  2547  0471  3014               	movlw	(014h)
  2548  0472  120A  158A  2628   	fcall	_lcd_goto
              120A  118A         
  2549                           	line	413
  2550                           	
  2551  0477                     l3244:	
  2552                           ;PR17B.c: 413: send_string("1. Analog Input");
  2553  0477  30A3               	movlw	low(STR_17|8000h)
  2554  0478  00F9               	movwf	(?_send_string)
  2555  0479  309E               	movlw	high(STR_17|8000h)
  2556  047A  00FA               	movwf	((?_send_string))+1
  2557  047B  120A  158A  26F6   	fcall	_send_string
              120A  118A         
  2558  0480  2C81               	goto	l3246
  2559                           	line	414
  2560                           ;PR17B.c: 414: while(1)
  2561                           	
  2562  0481                     l763:	
  2563                           	line	416
  2564                           	
  2565  0481                     l3246:	
  2566                           ;PR17B.c: 415: {
  2567                           ;PR17B.c: 416: if(RD5 == 0)
  2568  0481  1283               	bcf	status, 5	;RP0=0, select bank0
  2569  0482  1303               	bcf	status, 6	;RP1=0, select bank0
  2570  0483  1A88               	btfsc	(69/8),(69)&7
  2571  0484  2C86               	goto	u2991
  2572  0485  2C87               	goto	u2990
  2573  0486                     u2991:
  2574  0486  2CB9               	goto	l764
  2575  0487                     u2990:
  2576  0487  2C89               	goto	l765
  2577                           	line	418
  2578                           	
  2579  0488                     l3248:	
  2580                           ;PR17B.c: 417: {
  2581                           ;PR17B.c: 418: while(RD5 == 0) continue;
  2582  0488  2C89               	goto	l765
  2583                           	
  2584  0489                     l766:	
  2585                           	
  2586  0489                     l765:	
  2587  0489  1E88               	btfss	(69/8),(69)&7
  2588  048A  2C8C               	goto	u3001
  2589  048B  2C8D               	goto	u3000
  2590  048C                     u3001:
  2591  048C  2C89               	goto	l765
  2592  048D                     u3000:
  2593  048D  2C8E               	goto	l3250
  2594                           	
  2595  048E                     l767:	
  2596                           	line	419
  2597                           	
  2598  048E                     l3250:	
  2599                           ;PR17B.c: 419: i++;
  2600  048E  3001               	movlw	(01h)
  2601  048F  00FD               	movwf	(??_Record+0)+0
  2602  0490  087D               	movf	(??_Record+0)+0,w
  2603  0491  07A8               	addwf	(Record@i),f
  2604                           	line	420
  2605                           	
  2606  0492                     l3252:	
  2607                           ;PR17B.c: 420: lcd_goto(20);
  2608  0492  3014               	movlw	(014h)
  2609  0493  120A  158A  2628   	fcall	_lcd_goto
              120A  118A         
  2610                           	line	421
  2611                           ;PR17B.c: 421: switch (i)
  2612  0498  2CB2               	goto	l3260
  2613                           	line	423
  2614                           ;PR17B.c: 422: {
  2615                           ;PR17B.c: 423: case 2 : send_string("2. MIC         ");
  2616                           	
  2617  0499                     l769:	
  2618                           	
  2619  0499                     l3254:	
  2620  0499  3043               	movlw	low(STR_18|8000h)
  2621  049A  00F9               	movwf	(?_send_string)
  2622  049B  309E               	movlw	high(STR_18|8000h)
  2623  049C  00FA               	movwf	((?_send_string))+1
  2624  049D  120A  158A  26F6   	fcall	_send_string
              120A  118A         
  2625                           	line	424
  2626                           ;PR17B.c: 424: break;
  2627  04A2  2CB9               	goto	l764
  2628                           	line	425
  2629                           ;PR17B.c: 425: default: send_string("1. Analog Input");
  2630                           	
  2631  04A3                     l771:	
  2632                           	
  2633  04A3                     l3256:	
  2634  04A3  30A3               	movlw	low(STR_19|8000h)
  2635  04A4  00F9               	movwf	(?_send_string)
  2636  04A5  309E               	movlw	high(STR_19|8000h)
  2637  04A6  00FA               	movwf	((?_send_string))+1
  2638  04A7  120A  158A  26F6   	fcall	_send_string
              120A  118A         
  2639                           	line	426
  2640                           	
  2641  04AC                     l3258:	
  2642                           ;PR17B.c: 426: i =1;
  2643  04AC  1283               	bcf	status, 5	;RP0=0, select bank0
  2644  04AD  1303               	bcf	status, 6	;RP1=0, select bank0
  2645  04AE  01A8               	clrf	(Record@i)
  2646  04AF  1403               	bsf	status,0
  2647  04B0  0DA8               	rlf	(Record@i),f
  2648                           	line	427
  2649                           ;PR17B.c: 427: }
  2650  04B1  2CB9               	goto	l764
  2651                           	line	421
  2652                           	
  2653  04B2                     l768:	
  2654                           	
  2655  04B2                     l3260:	
  2656  04B2  1283               	bcf	status, 5	;RP0=0, select bank0
  2657  04B3  1303               	bcf	status, 6	;RP1=0, select bank0
  2658  04B4  0828               	movf	(Record@i),w
  2659                           	; Switch size 1, requested type "space"
  2660                           ; Number of cases is 1, Range of values is 2 to 2
  2661                           ; switch strategies available:
  2662                           ; Name         Bytes Cycles
  2663                           ; simple_byte     4     3 (average)
  2664                           ; direct_byte    25    22 (fixed)
  2665                           ;	Chosen strategy is simple_byte
  2666                           
  2667  04B5  3A02               	xorlw	2^0	; case 2
  2668  04B6  1903               	skipnz
  2669  04B7  2C99               	goto	l3254
  2670  04B8  2CA3               	goto	l3256
  2671                           
  2672                           	line	427
  2673                           	
  2674  04B9                     l770:	
  2675                           	line	428
  2676                           	
  2677  04B9                     l764:	
  2678                           	line	429
  2679                           ;PR17B.c: 428: }
  2680                           ;PR17B.c: 429: if(RD4 == 0)
  2681  04B9  1283               	bcf	status, 5	;RP0=0, select bank0
  2682  04BA  1303               	bcf	status, 6	;RP1=0, select bank0
  2683  04BB  1A08               	btfsc	(68/8),(68)&7
  2684  04BC  2CBE               	goto	u3011
  2685  04BD  2CBF               	goto	u3010
  2686  04BE                     u3011:
  2687  04BE  2C81               	goto	l3246
  2688  04BF                     u3010:
  2689  04BF  2CC1               	goto	l773
  2690                           	line	431
  2691                           	
  2692  04C0                     l3262:	
  2693                           ;PR17B.c: 430: {
  2694                           ;PR17B.c: 431: while(RD4 == 0) continue;
  2695  04C0  2CC1               	goto	l773
  2696                           	
  2697  04C1                     l774:	
  2698                           	
  2699  04C1                     l773:	
  2700  04C1  1E08               	btfss	(68/8),(68)&7
  2701  04C2  2CC4               	goto	u3021
  2702  04C3  2CC5               	goto	u3020
  2703  04C4                     u3021:
  2704  04C4  2CC1               	goto	l773
  2705  04C5                     u3020:
  2706  04C5  2CD8               	goto	l3270
  2707                           	
  2708  04C6                     l775:	
  2709                           	line	432
  2710                           ;PR17B.c: 432: switch (i)
  2711  04C6  2CD8               	goto	l3270
  2712                           	line	434
  2713                           ;PR17B.c: 433: {
  2714                           ;PR17B.c: 434: case 2 : mic();
  2715                           	
  2716  04C7                     l777:	
  2717                           	
  2718  04C7                     l3264:	
  2719  04C7  120A  158A  2727   	fcall	_mic
              120A  118A         
  2720                           	line	435
  2721                           ;PR17B.c: 435: break;
  2722  04CC  2C81               	goto	l3246
  2723                           	line	436
  2724                           ;PR17B.c: 436: default : analog();
  2725                           	
  2726  04CD                     l779:	
  2727                           	
  2728  04CD                     l3266:	
  2729  04CD  120A  118A  256B   	fcall	_analog
              120A  118A         
  2730                           	line	437
  2731                           	
  2732  04D2                     l3268:	
  2733                           ;PR17B.c: 437: i = 1;
  2734  04D2  1283               	bcf	status, 5	;RP0=0, select bank0
  2735  04D3  1303               	bcf	status, 6	;RP1=0, select bank0
  2736  04D4  01A8               	clrf	(Record@i)
  2737  04D5  1403               	bsf	status,0
  2738  04D6  0DA8               	rlf	(Record@i),f
  2739                           	line	438
  2740                           ;PR17B.c: 438: }
  2741  04D7  2C81               	goto	l3246
  2742                           	line	432
  2743                           	
  2744  04D8                     l776:	
  2745                           	
  2746  04D8                     l3270:	
  2747  04D8  0828               	movf	(Record@i),w
  2748                           	; Switch size 1, requested type "space"
  2749                           ; Number of cases is 1, Range of values is 2 to 2
  2750                           ; switch strategies available:
  2751                           ; Name         Bytes Cycles
  2752                           ; simple_byte     4     3 (average)
  2753                           ; direct_byte    25    22 (fixed)
  2754                           ;	Chosen strategy is simple_byte
  2755                           
  2756  04D9  3A02               	xorlw	2^0	; case 2
  2757  04DA  1903               	skipnz
  2758  04DB  2CC7               	goto	l3264
  2759  04DC  2CCD               	goto	l3266
  2760                           
  2761                           	line	438
  2762                           	
  2763  04DD                     l778:	
  2764  04DD  2C81               	goto	l3246
  2765                           	line	440
  2766                           	
  2767  04DE                     l772:	
  2768  04DE  2C81               	goto	l3246
  2769                           	line	441
  2770                           	
  2771  04DF                     l780:	
  2772                           	line	414
  2773  04DF  2C81               	goto	l3246
  2774                           	
  2775  04E0                     l781:	
  2776                           	line	442
  2777                           	
  2778  04E0                     l782:	
  2779  04E0  0008               	return
  2780                           	opt stack 0
  2781                           GLOBAL	__end_of_Record
  2782  04E1                     	__end_of_Record:
  2783 ;; =============== function _Record ends ============
  2784                           
  2785                           	signat	_Record,88
  2786                           	global	_analog
  2787                           psect	text723,local,class=CODE,delta=2
  2788                           global __ptext723
  2789  056B                     __ptext723:
  2790                           
  2791 ;; *************** function _analog *****************
  2792 ;; Defined at:
  2793 ;;		line 575 in file "PR17B.c"
  2794 ;; Parameters:    Size  Location     Type
  2795 ;;		None
  2796 ;; Auto vars:     Size  Location     Type
  2797 ;;		None
  2798 ;; Return value:  Size  Location     Type
  2799 ;;		None               void
  2800 ;; Registers used:
  2801 ;;		wreg, fsr0l, fsr0h, status,2, status,0, btemp+1, pclath, cstack
  2802 ;; Tracked objects:
  2803 ;;		On entry : 0/0
  2804 ;;		On exit  : 0/0
  2805 ;;		Unchanged: 0/0
  2806 ;; Data sizes:     COMMON   BANK0   BANK1   BANK3   BANK2
  2807 ;;      Params:         0       0       0       0       0
  2808 ;;      Locals:         0       0       0       0       0
  2809 ;;      Temps:          0       0       0       0       0
  2810 ;;      Totals:         0       0       0       0       0
  2811 ;;Total ram usage:        0 bytes
  2812 ;; Hardware stack levels used:    1
  2813 ;; Hardware stack levels required when called:    6
  2814 ;; This function calls:
  2815 ;;		_uc_send_receive_spi
  2816 ;;		_tmr_delay
  2817 ;;		_location
  2818 ;; This function is called by:
  2819 ;;		_Record
  2820 ;; This function uses a non-reentrant model
  2821 ;;
  2822                           psect	text723
  2823                           	file	"PR17B.c"
  2824                           	line	575
  2825                           	global	__size_of_analog
  2826  0094                     	__size_of_analog	equ	__end_of_analog-_analog
  2827                           	
  2828  056B                     _analog:	
  2829 ;; hardware stack exceeded
  2830                           	opt	stack 0
  2831                           ; Regs used in _analog: [wreg-fsr0h+status,2+status,0+btemp+1+pclath+cstack]
  2832                           	line	576
  2833                           	
  2834  056B                     l3208:	
  2835                           ;PR17B.c: 576: RE1 = 0;
  2836  056B  1283               	bcf	status, 5	;RP0=0, select bank0
  2837  056C  1303               	bcf	status, 6	;RP1=0, select bank0
  2838  056D  1089               	bcf	(73/8),(73)&7
  2839                           	line	577
  2840                           	
  2841  056E                     l3210:	
  2842                           ;PR17B.c: 577: uc_send_receive_spi(0b11100000);
  2843  056E  30E0               	movlw	(0E0h)
  2844  056F  120A  158A  25BB   	fcall	_uc_send_receive_spi
              120A  118A         
  2845                           	line	578
  2846                           ;PR17B.c: 578: uc_send_receive_spi(0b00000000);
  2847  0574  3000               	movlw	(0)
  2848  0575  120A  158A  25BB   	fcall	_uc_send_receive_spi
              120A  118A         
  2849                           	line	579
  2850                           	
  2851  057A                     l3212:	
  2852                           ;PR17B.c: 579: RE1 = 1;
  2853  057A  1283               	bcf	status, 5	;RP0=0, select bank0
  2854  057B  1303               	bcf	status, 6	;RP1=0, select bank0
  2855  057C  1489               	bsf	(73/8),(73)&7
  2856                           	line	580
  2857                           ;PR17B.c: 580: tmr_delay(10);
  2858  057D  300A               	movlw	low(0Ah)
  2859  057E  00F0               	movwf	(?_tmr_delay)
  2860  057F  3000               	movlw	high(0Ah)
  2861  0580  00F1               	movwf	((?_tmr_delay))+1
  2862  0581  120A  158A  26A4   	fcall	_tmr_delay
              120A  118A         
  2863                           	line	582
  2864                           	
  2865  0586                     l3214:	
  2866                           ;PR17B.c: 582: RE1 = 0;
  2867  0586  1283               	bcf	status, 5	;RP0=0, select bank0
  2868  0587  1303               	bcf	status, 6	;RP1=0, select bank0
  2869  0588  1089               	bcf	(73/8),(73)&7
  2870                           	line	583
  2871                           ;PR17B.c: 583: uc_send_receive_spi(0b00100000);
  2872  0589  3020               	movlw	(020h)
  2873  058A  120A  158A  25BB   	fcall	_uc_send_receive_spi
              120A  118A         
  2874                           	line	584
  2875                           ;PR17B.c: 584: uc_send_receive_spi(0b00000000);
  2876  058F  3000               	movlw	(0)
  2877  0590  120A  158A  25BB   	fcall	_uc_send_receive_spi
              120A  118A         
  2878                           	line	585
  2879                           	
  2880  0595                     l3216:	
  2881                           ;PR17B.c: 585: RE1 = 1;
  2882  0595  1283               	bcf	status, 5	;RP0=0, select bank0
  2883  0596  1303               	bcf	status, 6	;RP1=0, select bank0
  2884  0597  1489               	bsf	(73/8),(73)&7
  2885                           	line	587
  2886                           ;PR17B.c: 587: tmr_delay(10);
  2887  0598  300A               	movlw	low(0Ah)
  2888  0599  00F0               	movwf	(?_tmr_delay)
  2889  059A  3000               	movlw	high(0Ah)
  2890  059B  00F1               	movwf	((?_tmr_delay))+1
  2891  059C  120A  158A  26A4   	fcall	_tmr_delay
              120A  118A         
  2892                           	line	589
  2893                           	
  2894  05A1                     l3218:	
  2895                           ;PR17B.c: 589: RE1 = 0;
  2896  05A1  1283               	bcf	status, 5	;RP0=0, select bank0
  2897  05A2  1303               	bcf	status, 6	;RP1=0, select bank0
  2898  05A3  1089               	bcf	(73/8),(73)&7
  2899                           	line	590
  2900                           ;PR17B.c: 590: uc_send_receive_spi(0b10000000);
  2901  05A4  3080               	movlw	(080h)
  2902  05A5  120A  158A  25BB   	fcall	_uc_send_receive_spi
              120A  118A         
  2903                           	line	591
  2904                           ;PR17B.c: 591: uc_send_receive_spi(0b00000000);
  2905  05AA  3000               	movlw	(0)
  2906  05AB  120A  158A  25BB   	fcall	_uc_send_receive_spi
              120A  118A         
  2907                           	line	592
  2908                           	
  2909  05B0                     l3220:	
  2910                           ;PR17B.c: 592: RE1 = 1;
  2911  05B0  1283               	bcf	status, 5	;RP0=0, select bank0
  2912  05B1  1303               	bcf	status, 6	;RP1=0, select bank0
  2913  05B2  1489               	bsf	(73/8),(73)&7
  2914                           	line	593
  2915                           ;PR17B.c: 593: tmr_delay(10);
  2916  05B3  300A               	movlw	low(0Ah)
  2917  05B4  00F0               	movwf	(?_tmr_delay)
  2918  05B5  3000               	movlw	high(0Ah)
  2919  05B6  00F1               	movwf	((?_tmr_delay))+1
  2920  05B7  120A  158A  26A4   	fcall	_tmr_delay
              120A  118A         
  2921                           	line	595
  2922                           	
  2923  05BC                     l3222:	
  2924                           ;PR17B.c: 595: RD3 = 0;
  2925  05BC  1283               	bcf	status, 5	;RP0=0, select bank0
  2926  05BD  1303               	bcf	status, 6	;RP1=0, select bank0
  2927  05BE  1188               	bcf	(67/8),(67)&7
  2928                           	line	597
  2929                           	
  2930  05BF                     l3224:	
  2931                           ;PR17B.c: 597: RE1 = 0;
  2932  05BF  1089               	bcf	(73/8),(73)&7
  2933                           	line	598
  2934                           ;PR17B.c: 598: uc_send_receive_spi(0b00100000);
  2935  05C0  3020               	movlw	(020h)
  2936  05C1  120A  158A  25BB   	fcall	_uc_send_receive_spi
              120A  118A         
  2937                           	line	599
  2938                           ;PR17B.c: 599: uc_send_receive_spi(0b00000000);
  2939  05C6  3000               	movlw	(0)
  2940  05C7  120A  158A  25BB   	fcall	_uc_send_receive_spi
              120A  118A         
  2941                           	line	600
  2942                           	
  2943  05CC                     l3226:	
  2944                           ;PR17B.c: 600: RE1 = 1;
  2945  05CC  1283               	bcf	status, 5	;RP0=0, select bank0
  2946  05CD  1303               	bcf	status, 6	;RP1=0, select bank0
  2947  05CE  1489               	bsf	(73/8),(73)&7
  2948                           	line	602
  2949                           ;PR17B.c: 602: tmr_delay(10);
  2950  05CF  300A               	movlw	low(0Ah)
  2951  05D0  00F0               	movwf	(?_tmr_delay)
  2952  05D1  3000               	movlw	high(0Ah)
  2953  05D2  00F1               	movwf	((?_tmr_delay))+1
  2954  05D3  120A  158A  26A4   	fcall	_tmr_delay
              120A  118A         
  2955                           	line	605
  2956                           	
  2957  05D8                     l3228:	
  2958                           ;PR17B.c: 605: RE1 = 0;
  2959  05D8  1283               	bcf	status, 5	;RP0=0, select bank0
  2960  05D9  1303               	bcf	status, 6	;RP1=0, select bank0
  2961  05DA  1089               	bcf	(73/8),(73)&7
  2962                           	line	606
  2963                           ;PR17B.c: 606: uc_send_receive_spi(0b10100010);
  2964  05DB  30A2               	movlw	(0A2h)
  2965  05DC  120A  158A  25BB   	fcall	_uc_send_receive_spi
              120A  118A         
  2966                           	line	607
  2967                           ;PR17B.c: 607: uc_send_receive_spi(0b00000000);
  2968  05E1  3000               	movlw	(0)
  2969  05E2  120A  158A  25BB   	fcall	_uc_send_receive_spi
              120A  118A         
  2970                           	line	608
  2971                           ;PR17B.c: 608: uc_send_receive_spi(0b00100000);
  2972  05E7  3020               	movlw	(020h)
  2973  05E8  120A  158A  25BB   	fcall	_uc_send_receive_spi
              120A  118A         
  2974                           	line	609
  2975                           	
  2976  05ED                     l3230:	
  2977                           ;PR17B.c: 609: RE1 = 1;
  2978  05ED  1283               	bcf	status, 5	;RP0=0, select bank0
  2979  05EE  1303               	bcf	status, 6	;RP1=0, select bank0
  2980  05EF  1489               	bsf	(73/8),(73)&7
  2981                           	line	611
  2982                           ;PR17B.c: 611: tmr_delay(10);
  2983  05F0  300A               	movlw	low(0Ah)
  2984  05F1  00F0               	movwf	(?_tmr_delay)
  2985  05F2  3000               	movlw	high(0Ah)
  2986  05F3  00F1               	movwf	((?_tmr_delay))+1
  2987  05F4  120A  158A  26A4   	fcall	_tmr_delay
              120A  118A         
  2988                           	line	613
  2989                           	
  2990  05F9                     l3232:	
  2991                           ;PR17B.c: 613: location();
  2992  05F9  120A  118A  2350   	fcall	_location
              120A  118A         
  2993                           	line	614
  2994                           	
  2995  05FE                     l819:	
  2996  05FE  0008               	return
  2997                           	opt stack 0
  2998                           GLOBAL	__end_of_analog
  2999  05FF                     	__end_of_analog:
  3000 ;; =============== function _analog ends ============
  3001                           
  3002                           	signat	_analog,88
  3003                           	global	_mic
  3004                           psect	text724,local,class=CODE,delta=2
  3005                           global __ptext724
  3006  0F27                     __ptext724:
  3007                           
  3008 ;; *************** function _mic *****************
  3009 ;; Defined at:
  3010 ;;		line 617 in file "PR17B.c"
  3011 ;; Parameters:    Size  Location     Type
  3012 ;;		None
  3013 ;; Auto vars:     Size  Location     Type
  3014 ;;		None
  3015 ;; Return value:  Size  Location     Type
  3016 ;;		None               void
  3017 ;; Registers used:
  3018 ;;		wreg, fsr0l, fsr0h, status,2, status,0, btemp+1, pclath, cstack
  3019 ;; Tracked objects:
  3020 ;;		On entry : 0/0
  3021 ;;		On exit  : 0/0
  3022 ;;		Unchanged: 0/0
  3023 ;; Data sizes:     COMMON   BANK0   BANK1   BANK3   BANK2
  3024 ;;      Params:         0       0       0       0       0
  3025 ;;      Locals:         0       0       0       0       0
  3026 ;;      Temps:          0       0       0       0       0
  3027 ;;      Totals:         0       0       0       0       0
  3028 ;;Total ram usage:        0 bytes
  3029 ;; Hardware stack levels used:    1
  3030 ;; Hardware stack levels required when called:    6
  3031 ;; This function calls:
  3032 ;;		_uc_send_receive_spi
  3033 ;;		_tmr_delay
  3034 ;;		_location
  3035 ;; This function is called by:
  3036 ;;		_Record
  3037 ;; This function uses a non-reentrant model
  3038 ;;
  3039                           psect	text724
  3040                           	file	"PR17B.c"
  3041                           	line	617
  3042                           	global	__size_of_mic
  3043  003F                     	__size_of_mic	equ	__end_of_mic-_mic
  3044                           	
  3045  0F27                     _mic:	
  3046 ;; hardware stack exceeded
  3047                           	opt	stack 0
  3048                           ; Regs used in _mic: [wreg-fsr0h+status,2+status,0+btemp+1+pclath+cstack]
  3049                           	line	618
  3050                           	
  3051  0F27                     l3194:	
  3052                           ;PR17B.c: 618: RE1 = 0;
  3053  0F27  1283               	bcf	status, 5	;RP0=0, select bank0
  3054  0F28  1303               	bcf	status, 6	;RP1=0, select bank0
  3055  0F29  1089               	bcf	(73/8),(73)&7
  3056                           	line	619
  3057                           	
  3058  0F2A                     l3196:	
  3059                           ;PR17B.c: 619: uc_send_receive_spi(0b11100000);
  3060  0F2A  30E0               	movlw	(0E0h)
  3061  0F2B  120A  158A  25BB   	fcall	_uc_send_receive_spi
              120A  158A         
  3062                           	line	620
  3063                           ;PR17B.c: 620: uc_send_receive_spi(0b00000000);
  3064  0F30  3000               	movlw	(0)
  3065  0F31  120A  158A  25BB   	fcall	_uc_send_receive_spi
              120A  158A         
  3066                           	line	621
  3067                           	
  3068  0F36                     l3198:	
  3069                           ;PR17B.c: 621: RE1 = 1;
  3070  0F36  1283               	bcf	status, 5	;RP0=0, select bank0
  3071  0F37  1303               	bcf	status, 6	;RP1=0, select bank0
  3072  0F38  1489               	bsf	(73/8),(73)&7
  3073                           	line	622
  3074                           ;PR17B.c: 622: tmr_delay(10);
  3075  0F39  300A               	movlw	low(0Ah)
  3076  0F3A  00F0               	movwf	(?_tmr_delay)
  3077  0F3B  3000               	movlw	high(0Ah)
  3078  0F3C  00F1               	movwf	((?_tmr_delay))+1
  3079  0F3D  120A  158A  26A4   	fcall	_tmr_delay
              120A  158A         
  3080                           	line	624
  3081                           	
  3082  0F42                     l3200:	
  3083                           ;PR17B.c: 624: RE1 = 0;
  3084  0F42  1283               	bcf	status, 5	;RP0=0, select bank0
  3085  0F43  1303               	bcf	status, 6	;RP1=0, select bank0
  3086  0F44  1089               	bcf	(73/8),(73)&7
  3087                           	line	625
  3088                           ;PR17B.c: 625: uc_send_receive_spi(0b10000000);
  3089  0F45  3080               	movlw	(080h)
  3090  0F46  120A  158A  25BB   	fcall	_uc_send_receive_spi
              120A  158A         
  3091                           	line	626
  3092                           ;PR17B.c: 626: uc_send_receive_spi(0b00000000);
  3093  0F4B  3000               	movlw	(0)
  3094  0F4C  120A  158A  25BB   	fcall	_uc_send_receive_spi
              120A  158A         
  3095                           	line	627
  3096                           	
  3097  0F51                     l3202:	
  3098                           ;PR17B.c: 627: RE1 = 1;
  3099  0F51  1283               	bcf	status, 5	;RP0=0, select bank0
  3100  0F52  1303               	bcf	status, 6	;RP1=0, select bank0
  3101  0F53  1489               	bsf	(73/8),(73)&7
  3102                           	line	628
  3103                           ;PR17B.c: 628: tmr_delay(10);
  3104  0F54  300A               	movlw	low(0Ah)
  3105  0F55  00F0               	movwf	(?_tmr_delay)
  3106  0F56  3000               	movlw	high(0Ah)
  3107  0F57  00F1               	movwf	((?_tmr_delay))+1
  3108  0F58  120A  158A  26A4   	fcall	_tmr_delay
              120A  158A         
  3109                           	line	630
  3110                           	
  3111  0F5D                     l3204:	
  3112                           ;PR17B.c: 630: RD3 = 1;
  3113  0F5D  1283               	bcf	status, 5	;RP0=0, select bank0
  3114  0F5E  1303               	bcf	status, 6	;RP1=0, select bank0
  3115  0F5F  1588               	bsf	(67/8),(67)&7
  3116                           	line	631
  3117                           	
  3118  0F60                     l3206:	
  3119                           ;PR17B.c: 631: location();
  3120  0F60  120A  118A  2350   	fcall	_location
              120A  158A         
  3121                           	line	632
  3122                           	
  3123  0F65                     l822:	
  3124  0F65  0008               	return
  3125                           	opt stack 0
  3126                           GLOBAL	__end_of_mic
  3127  0F66                     	__end_of_mic:
  3128 ;; =============== function _mic ends ============
  3129                           
  3130                           	signat	_mic,88
  3131                           	global	_Stand
  3132                           psect	text725,local,class=CODE,delta=2
  3133                           global __ptext725
  3134  0751                     __ptext725:
  3135                           
  3136 ;; *************** function _Stand *****************
  3137 ;; Defined at:
  3138 ;;		line 321 in file "PR17B.c"
  3139 ;; Parameters:    Size  Location     Type
  3140 ;;		None
  3141 ;; Auto vars:     Size  Location     Type
  3142 ;;  i               1    0[BANK0 ] unsigned char 
  3143 ;; Return value:  Size  Location     Type
  3144 ;;		None               void
  3145 ;; Registers used:
  3146 ;;		wreg, fsr0l, fsr0h, status,2, status,0, btemp+1, pclath, cstack
  3147 ;; Tracked objects:
  3148 ;;		On entry : 0/0
  3149 ;;		On exit  : 0/0
  3150 ;;		Unchanged: 0/0
  3151 ;; Data sizes:     COMMON   BANK0   BANK1   BANK3   BANK2
  3152 ;;      Params:         0       0       0       0       0
  3153 ;;      Locals:         0       1       0       0       0
  3154 ;;      Temps:          1       0       0       0       0
  3155 ;;      Totals:         1       1       0       0       0
  3156 ;;Total ram usage:        2 bytes
  3157 ;; Hardware stack levels used:    1
  3158 ;; Hardware stack levels required when called:    6
  3159 ;; This function calls:
  3160 ;;		_uc_send_receive_spi
  3161 ;;		_lcd_clr
  3162 ;;		_lcd_goto
  3163 ;;		_send_string
  3164 ;;		_Play_s
  3165 ;;		_Option
  3166 ;;		_Forward
  3167 ;; This function is called by:
  3168 ;;		_main
  3169 ;; This function uses a non-reentrant model
  3170 ;;
  3171                           psect	text725
  3172                           	file	"PR17B.c"
  3173                           	line	321
  3174                           	global	__size_of_Stand
  3175  00AF                     	__size_of_Stand	equ	__end_of_Stand-_Stand
  3176                           	
  3177  0751                     _Stand:	
  3178                           	opt	stack 1
  3179                           ; Regs used in _Stand: [wreg-fsr0h+status,2+status,0+btemp+1+pclath+cstack]
  3180                           	line	322
  3181                           	
  3182  0751                     l3144:	
  3183                           ;PR17B.c: 322: char i =1;
  3184  0751  1283               	bcf	status, 5	;RP0=0, select bank0
  3185  0752  1303               	bcf	status, 6	;RP1=0, select bank0
  3186  0753  01A8               	clrf	(Stand@i)
  3187  0754  1403               	bsf	status,0
  3188  0755  0DA8               	rlf	(Stand@i),f
  3189                           	line	323
  3190                           	
  3191  0756                     l3146:	
  3192                           ;PR17B.c: 323: RE1 = 0;
  3193  0756  1089               	bcf	(73/8),(73)&7
  3194                           	line	324
  3195                           	
  3196  0757                     l3148:	
  3197                           ;PR17B.c: 324: uc_send_receive_spi(0b11100000);
  3198  0757  30E0               	movlw	(0E0h)
  3199  0758  120A  158A  25BB   	fcall	_uc_send_receive_spi
              120A  118A         
  3200                           	line	325
  3201                           	
  3202  075D                     l3150:	
  3203                           ;PR17B.c: 325: uc_send_receive_spi(0b00000000);
  3204  075D  3000               	movlw	(0)
  3205  075E  120A  158A  25BB   	fcall	_uc_send_receive_spi
              120A  118A         
  3206                           	line	326
  3207                           	
  3208  0763                     l3152:	
  3209                           ;PR17B.c: 326: RE1 = 1;
  3210  0763  1283               	bcf	status, 5	;RP0=0, select bank0
  3211  0764  1303               	bcf	status, 6	;RP1=0, select bank0
  3212  0765  1489               	bsf	(73/8),(73)&7
  3213                           	line	328
  3214                           	
  3215  0766                     l3154:	
  3216                           ;PR17B.c: 328: lcd_clr();
  3217  0766  120A  158A  25CD   	fcall	_lcd_clr
              120A  118A         
  3218                           	line	329
  3219                           	
  3220  076B                     l3156:	
  3221                           ;PR17B.c: 329: lcd_goto(0);
  3222  076B  3000               	movlw	(0)
  3223  076C  120A  158A  2628   	fcall	_lcd_goto
              120A  118A         
  3224                           	line	330
  3225                           	
  3226  0771                     l3158:	
  3227                           ;PR17B.c: 330: send_string("Switch mode");
  3228  0771  304E               	movlw	low(STR_7|8000h)
  3229  0772  00F9               	movwf	(?_send_string)
  3230  0773  309F               	movlw	high(STR_7|8000h)
  3231  0774  00FA               	movwf	((?_send_string))+1
  3232  0775  120A  158A  26F6   	fcall	_send_string
              120A  118A         
  3233                           	line	331
  3234                           	
  3235  077A                     l3160:	
  3236                           ;PR17B.c: 331: lcd_goto(20);
  3237  077A  3014               	movlw	(014h)
  3238  077B  120A  158A  2628   	fcall	_lcd_goto
              120A  118A         
  3239                           	line	332
  3240                           	
  3241  0780                     l3162:	
  3242                           ;PR17B.c: 332: send_string("1. Forward");
  3243  0780  3087               	movlw	low(STR_8|8000h)
  3244  0781  00F9               	movwf	(?_send_string)
  3245  0782  309F               	movlw	high(STR_8|8000h)
  3246  0783  00FA               	movwf	((?_send_string))+1
  3247  0784  120A  158A  26F6   	fcall	_send_string
              120A  118A         
  3248  0789  2F8A               	goto	l3164
  3249                           	line	333
  3250                           ;PR17B.c: 333: while(1)
  3251                           	
  3252  078A                     l717:	
  3253                           	line	335
  3254                           	
  3255  078A                     l3164:	
  3256                           ;PR17B.c: 334: {
  3257                           ;PR17B.c: 335: if(RD5 == 0)
  3258  078A  1283               	bcf	status, 5	;RP0=0, select bank0
  3259  078B  1303               	bcf	status, 6	;RP1=0, select bank0
  3260  078C  1A88               	btfsc	(69/8),(69)&7
  3261  078D  2F8F               	goto	u2951
  3262  078E  2F90               	goto	u2950
  3263  078F                     u2951:
  3264  078F  2FCF               	goto	l718
  3265  0790                     u2950:
  3266  0790  2F92               	goto	l719
  3267                           	line	337
  3268                           	
  3269  0791                     l3166:	
  3270                           ;PR17B.c: 336: {
  3271                           ;PR17B.c: 337: while(RD5 == 0) continue;
  3272  0791  2F92               	goto	l719
  3273                           	
  3274  0792                     l720:	
  3275                           	
  3276  0792                     l719:	
  3277  0792  1E88               	btfss	(69/8),(69)&7
  3278  0793  2F95               	goto	u2961
  3279  0794  2F96               	goto	u2960
  3280  0795                     u2961:
  3281  0795  2F92               	goto	l719
  3282  0796                     u2960:
  3283  0796  2F97               	goto	l3168
  3284                           	
  3285  0797                     l721:	
  3286                           	line	338
  3287                           	
  3288  0797                     l3168:	
  3289                           ;PR17B.c: 338: i++;
  3290  0797  3001               	movlw	(01h)
  3291  0798  00FD               	movwf	(??_Stand+0)+0
  3292  0799  087D               	movf	(??_Stand+0)+0,w
  3293  079A  07A8               	addwf	(Stand@i),f
  3294                           	line	339
  3295                           	
  3296  079B                     l3170:	
  3297                           ;PR17B.c: 339: lcd_goto(20);
  3298  079B  3014               	movlw	(014h)
  3299  079C  120A  158A  2628   	fcall	_lcd_goto
              120A  118A         
  3300                           	line	340
  3301                           ;PR17B.c: 340: switch (i)
  3302  07A1  2FC5               	goto	l3180
  3303                           	line	342
  3304                           ;PR17B.c: 341: {
  3305                           ;PR17B.c: 342: case 2 : send_string("2. Play    ");
  3306                           	
  3307  07A2                     l723:	
  3308                           	
  3309  07A2                     l3172:	
  3310  07A2  3006               	movlw	low(STR_9|8000h)
  3311  07A3  00F9               	movwf	(?_send_string)
  3312  07A4  309F               	movlw	high(STR_9|8000h)
  3313  07A5  00FA               	movwf	((?_send_string))+1
  3314  07A6  120A  158A  26F6   	fcall	_send_string
              120A  118A         
  3315                           	line	343
  3316                           ;PR17B.c: 343: break;
  3317  07AB  2FCF               	goto	l718
  3318                           	line	344
  3319                           ;PR17B.c: 344: case 3 : send_string("3. Record  ");
  3320                           	
  3321  07AC                     l725:	
  3322                           	
  3323  07AC                     l3174:	
  3324  07AC  301E               	movlw	low(STR_10|8000h)
  3325  07AD  00F9               	movwf	(?_send_string)
  3326  07AE  309F               	movlw	high(STR_10|8000h)
  3327  07AF  00FA               	movwf	((?_send_string))+1
  3328  07B0  120A  158A  26F6   	fcall	_send_string
              120A  118A         
  3329                           	line	345
  3330                           ;PR17B.c: 345: break;
  3331  07B5  2FCF               	goto	l718
  3332                           	line	346
  3333                           ;PR17B.c: 346: default: send_string("1. Forward ");
  3334                           	
  3335  07B6                     l726:	
  3336                           	
  3337  07B6                     l3176:	
  3338  07B6  302A               	movlw	low(STR_11|8000h)
  3339  07B7  00F9               	movwf	(?_send_string)
  3340  07B8  309F               	movlw	high(STR_11|8000h)
  3341  07B9  00FA               	movwf	((?_send_string))+1
  3342  07BA  120A  158A  26F6   	fcall	_send_string
              120A  118A         
  3343                           	line	347
  3344                           	
  3345  07BF                     l3178:	
  3346                           ;PR17B.c: 347: i =1;
  3347  07BF  1283               	bcf	status, 5	;RP0=0, select bank0
  3348  07C0  1303               	bcf	status, 6	;RP1=0, select bank0
  3349  07C1  01A8               	clrf	(Stand@i)
  3350  07C2  1403               	bsf	status,0
  3351  07C3  0DA8               	rlf	(Stand@i),f
  3352                           	line	348
  3353                           ;PR17B.c: 348: }
  3354  07C4  2FCF               	goto	l718
  3355                           	line	340
  3356                           	
  3357  07C5                     l722:	
  3358                           	
  3359  07C5                     l3180:	
  3360  07C5  1283               	bcf	status, 5	;RP0=0, select bank0
  3361  07C6  1303               	bcf	status, 6	;RP1=0, select bank0
  3362  07C7  0828               	movf	(Stand@i),w
  3363                           	; Switch size 1, requested type "space"
  3364                           ; Number of cases is 2, Range of values is 2 to 3
  3365                           ; switch strategies available:
  3366                           ; Name         Bytes Cycles
  3367                           ; simple_byte     7     4 (average)
  3368                           ; direct_byte    28    22 (fixed)
  3369                           ;	Chosen strategy is simple_byte
  3370                           
  3371  07C8  3A02               	xorlw	2^0	; case 2
  3372  07C9  1903               	skipnz
  3373  07CA  2FA2               	goto	l3172
  3374  07CB  3A01               	xorlw	3^2	; case 3
  3375  07CC  1903               	skipnz
  3376  07CD  2FAC               	goto	l3174
  3377  07CE  2FB6               	goto	l3176
  3378                           
  3379                           	line	348
  3380                           	
  3381  07CF                     l724:	
  3382                           	line	349
  3383                           	
  3384  07CF                     l718:	
  3385                           	line	350
  3386                           ;PR17B.c: 349: }
  3387                           ;PR17B.c: 350: if(RD4 == 0)
  3388  07CF  1283               	bcf	status, 5	;RP0=0, select bank0
  3389  07D0  1303               	bcf	status, 6	;RP1=0, select bank0
  3390  07D1  1A08               	btfsc	(68/8),(68)&7
  3391  07D2  2FD4               	goto	u2971
  3392  07D3  2FD5               	goto	u2970
  3393  07D4                     u2971:
  3394  07D4  2F8A               	goto	l3164
  3395  07D5                     u2970:
  3396  07D5  2FD7               	goto	l728
  3397                           	line	352
  3398                           	
  3399  07D6                     l3182:	
  3400                           ;PR17B.c: 351: {
  3401                           ;PR17B.c: 352: while(RD4 == 0) continue;
  3402  07D6  2FD7               	goto	l728
  3403                           	
  3404  07D7                     l729:	
  3405                           	
  3406  07D7                     l728:	
  3407  07D7  1E08               	btfss	(68/8),(68)&7
  3408  07D8  2FDA               	goto	u2981
  3409  07D9  2FDB               	goto	u2980
  3410  07DA                     u2981:
  3411  07DA  2FD7               	goto	l728
  3412  07DB                     u2980:
  3413  07DB  2FF4               	goto	l3192
  3414                           	
  3415  07DC                     l730:	
  3416                           	line	353
  3417                           ;PR17B.c: 353: switch (i)
  3418  07DC  2FF4               	goto	l3192
  3419                           	line	355
  3420                           ;PR17B.c: 354: {
  3421                           ;PR17B.c: 355: case 2 : Play_s();
  3422                           	
  3423  07DD                     l732:	
  3424                           	
  3425  07DD                     l3184:	
  3426  07DD  120A  158A  2645   	fcall	_Play_s
              120A  118A         
  3427                           	line	356
  3428                           ;PR17B.c: 356: break;
  3429  07E2  2F8A               	goto	l3164
  3430                           	line	357
  3431                           ;PR17B.c: 357: case 3 : Option();
  3432                           	
  3433  07E3                     l734:	
  3434                           	
  3435  07E3                     l3186:	
  3436  07E3  120A  118A  23D1   	fcall	_Option
              120A  118A         
  3437                           	line	358
  3438                           ;PR17B.c: 358: break;
  3439  07E8  2F8A               	goto	l3164
  3440                           	line	359
  3441                           ;PR17B.c: 359: default : Forward();
  3442                           	
  3443  07E9                     l735:	
  3444                           	
  3445  07E9                     l3188:	
  3446  07E9  120A  158A  2664   	fcall	_Forward
              120A  118A         
  3447                           	line	360
  3448                           	
  3449  07EE                     l3190:	
  3450                           ;PR17B.c: 360: i = 1;
  3451  07EE  1283               	bcf	status, 5	;RP0=0, select bank0
  3452  07EF  1303               	bcf	status, 6	;RP1=0, select bank0
  3453  07F0  01A8               	clrf	(Stand@i)
  3454  07F1  1403               	bsf	status,0
  3455  07F2  0DA8               	rlf	(Stand@i),f
  3456                           	line	361
  3457                           ;PR17B.c: 361: }
  3458  07F3  2F8A               	goto	l3164
  3459                           	line	353
  3460                           	
  3461  07F4                     l731:	
  3462                           	
  3463  07F4                     l3192:	
  3464  07F4  0828               	movf	(Stand@i),w
  3465                           	; Switch size 1, requested type "space"
  3466                           ; Number of cases is 2, Range of values is 2 to 3
  3467                           ; switch strategies available:
  3468                           ; Name         Bytes Cycles
  3469                           ; simple_byte     7     4 (average)
  3470                           ; direct_byte    28    22 (fixed)
  3471                           ;	Chosen strategy is simple_byte
  3472                           
  3473  07F5  3A02               	xorlw	2^0	; case 2
  3474  07F6  1903               	skipnz
  3475  07F7  2FDD               	goto	l3184
  3476  07F8  3A01               	xorlw	3^2	; case 3
  3477  07F9  1903               	skipnz
  3478  07FA  2FE3               	goto	l3186
  3479  07FB  2FE9               	goto	l3188
  3480                           
  3481                           	line	361
  3482                           	
  3483  07FC                     l733:	
  3484  07FC  2F8A               	goto	l3164
  3485                           	line	363
  3486                           	
  3487  07FD                     l727:	
  3488  07FD  2F8A               	goto	l3164
  3489                           	line	364
  3490                           	
  3491  07FE                     l736:	
  3492                           	line	333
  3493  07FE  2F8A               	goto	l3164
  3494                           	
  3495  07FF                     l737:	
  3496                           	line	365
  3497                           	
  3498  07FF                     l738:	
  3499  07FF  0008               	return
  3500                           	opt stack 0
  3501                           GLOBAL	__end_of_Stand
  3502  0800                     	__end_of_Stand:
  3503 ;; =============== function _Stand ends ============
  3504                           
  3505                           	signat	_Stand,88
  3506                           	global	_location
  3507                           psect	text726,local,class=CODE,delta=2
  3508                           global __ptext726
  3509  0350                     __ptext726:
  3510                           
  3511 ;; *************** function _location *****************
  3512 ;; Defined at:
  3513 ;;		line 489 in file "PR17B.c"
  3514 ;; Parameters:    Size  Location     Type
  3515 ;;		None
  3516 ;; Auto vars:     Size  Location     Type
  3517 ;;  i               1   12[COMMON] unsigned char 
  3518 ;; Return value:  Size  Location     Type
  3519 ;;		None               void
  3520 ;; Registers used:
  3521 ;;		wreg, fsr0l, fsr0h, status,2, status,0, btemp+1, pclath, cstack
  3522 ;; Tracked objects:
  3523 ;;		On entry : 0/0
  3524 ;;		On exit  : 0/0
  3525 ;;		Unchanged: 0/0
  3526 ;; Data sizes:     COMMON   BANK0   BANK1   BANK3   BANK2
  3527 ;;      Params:         0       0       0       0       0
  3528 ;;      Locals:         1       0       0       0       0
  3529 ;;      Temps:          1       0       0       0       0
  3530 ;;      Totals:         2       0       0       0       0
  3531 ;;Total ram usage:        2 bytes
  3532 ;; Hardware stack levels used:    1
  3533 ;; Hardware stack levels required when called:    5
  3534 ;; This function calls:
  3535 ;;		_lcd_clr
  3536 ;;		_lcd_goto
  3537 ;;		_send_string
  3538 ;;		_message2r
  3539 ;;		_message1r
  3540 ;; This function is called by:
  3541 ;;		_analog
  3542 ;;		_mic
  3543 ;; This function uses a non-reentrant model
  3544 ;;
  3545                           psect	text726
  3546                           	file	"PR17B.c"
  3547                           	line	489
  3548                           	global	__size_of_location
  3549  0081                     	__size_of_location	equ	__end_of_location-_location
  3550                           	
  3551  0350                     _location:	
  3552 ;; hardware stack exceeded
  3553                           	opt	stack 0
  3554                           ; Regs used in _location: [wreg-fsr0h+status,2+status,0+btemp+1+pclath+cstack]
  3555                           	line	491
  3556                           	
  3557  0350                     l3106:	
  3558                           ;PR17B.c: 491: char i =1;
  3559  0350  01FC               	clrf	(location@i)
  3560  0351  1403               	bsf	status,0
  3561  0352  0DFC               	rlf	(location@i),f
  3562                           	line	492
  3563                           	
  3564  0353                     l3108:	
  3565                           ;PR17B.c: 492: lcd_clr();
  3566  0353  120A  158A  25CD   	fcall	_lcd_clr
              120A  118A         
  3567                           	line	493
  3568                           	
  3569  0358                     l3110:	
  3570                           ;PR17B.c: 493: lcd_goto(0);
  3571  0358  3000               	movlw	(0)
  3572  0359  120A  158A  2628   	fcall	_lcd_goto
              120A  118A         
  3573                           	line	494
  3574                           	
  3575  035E                     l3112:	
  3576                           ;PR17B.c: 494: send_string("Location");
  3577  035E  30A5               	movlw	low(STR_26|8000h)
  3578  035F  00F9               	movwf	(?_send_string)
  3579  0360  309F               	movlw	high(STR_26|8000h)
  3580  0361  00FA               	movwf	((?_send_string))+1
  3581  0362  120A  158A  26F6   	fcall	_send_string
              120A  118A         
  3582                           	line	495
  3583                           	
  3584  0367                     l3114:	
  3585                           ;PR17B.c: 495: lcd_goto(20);
  3586  0367  3014               	movlw	(014h)
  3587  0368  120A  158A  2628   	fcall	_lcd_goto
              120A  118A         
  3588                           	line	496
  3589                           	
  3590  036D                     l3116:	
  3591                           ;PR17B.c: 496: send_string("1. Message 1");
  3592  036D  30EC               	movlw	low(STR_27|8000h)
  3593  036E  00F9               	movwf	(?_send_string)
  3594  036F  309E               	movlw	high(STR_27|8000h)
  3595  0370  00FA               	movwf	((?_send_string))+1
  3596  0371  120A  158A  26F6   	fcall	_send_string
              120A  118A         
  3597  0376  2B77               	goto	l3118
  3598                           	line	497
  3599                           ;PR17B.c: 497: while(1)
  3600                           	
  3601  0377                     l791:	
  3602                           	line	499
  3603                           	
  3604  0377                     l3118:	
  3605                           ;PR17B.c: 498: {
  3606                           ;PR17B.c: 499: if(RD5 == 0)
  3607  0377  1283               	bcf	status, 5	;RP0=0, select bank0
  3608  0378  1303               	bcf	status, 6	;RP1=0, select bank0
  3609  0379  1A88               	btfsc	(69/8),(69)&7
  3610  037A  2B7C               	goto	u2911
  3611  037B  2B7D               	goto	u2910
  3612  037C                     u2911:
  3613  037C  2BAB               	goto	l792
  3614  037D                     u2910:
  3615  037D  2B7F               	goto	l793
  3616                           	line	501
  3617                           	
  3618  037E                     l3120:	
  3619                           ;PR17B.c: 500: {
  3620                           ;PR17B.c: 501: while(RD5 == 0) continue;
  3621  037E  2B7F               	goto	l793
  3622                           	
  3623  037F                     l794:	
  3624                           	
  3625  037F                     l793:	
  3626  037F  1E88               	btfss	(69/8),(69)&7
  3627  0380  2B82               	goto	u2921
  3628  0381  2B83               	goto	u2920
  3629  0382                     u2921:
  3630  0382  2B7F               	goto	l793
  3631  0383                     u2920:
  3632  0383  2B84               	goto	l3122
  3633                           	
  3634  0384                     l795:	
  3635                           	line	502
  3636                           	
  3637  0384                     l3122:	
  3638                           ;PR17B.c: 502: i++;
  3639  0384  3001               	movlw	(01h)
  3640  0385  00FB               	movwf	(??_location+0)+0
  3641  0386  087B               	movf	(??_location+0)+0,w
  3642  0387  07FC               	addwf	(location@i),f
  3643                           	line	503
  3644                           	
  3645  0388                     l3124:	
  3646                           ;PR17B.c: 503: lcd_goto(20);
  3647  0388  3014               	movlw	(014h)
  3648  0389  120A  158A  2628   	fcall	_lcd_goto
              120A  118A         
  3649                           	line	504
  3650                           ;PR17B.c: 504: switch (i)
  3651  038E  2BA6               	goto	l3132
  3652                           	line	506
  3653                           ;PR17B.c: 505: {
  3654                           ;PR17B.c: 506: case 2 : send_string("2. Message 2");
  3655                           	
  3656  038F                     l797:	
  3657                           	
  3658  038F                     l3126:	
  3659  038F  30F9               	movlw	low(STR_28|8000h)
  3660  0390  00F9               	movwf	(?_send_string)
  3661  0391  309E               	movlw	high(STR_28|8000h)
  3662  0392  00FA               	movwf	((?_send_string))+1
  3663  0393  120A  158A  26F6   	fcall	_send_string
              120A  118A         
  3664                           	line	507
  3665                           ;PR17B.c: 507: break;
  3666  0398  2BAB               	goto	l792
  3667                           	line	509
  3668                           ;PR17B.c: 509: default: send_string("1. Message 1");
  3669                           	
  3670  0399                     l799:	
  3671                           	
  3672  0399                     l3128:	
  3673  0399  30EC               	movlw	low(STR_29|8000h)
  3674  039A  00F9               	movwf	(?_send_string)
  3675  039B  309E               	movlw	high(STR_29|8000h)
  3676  039C  00FA               	movwf	((?_send_string))+1
  3677  039D  120A  158A  26F6   	fcall	_send_string
              120A  118A         
  3678                           	line	510
  3679                           	
  3680  03A2                     l3130:	
  3681                           ;PR17B.c: 510: i =1;
  3682  03A2  01FC               	clrf	(location@i)
  3683  03A3  1403               	bsf	status,0
  3684  03A4  0DFC               	rlf	(location@i),f
  3685                           	line	511
  3686                           ;PR17B.c: 511: }
  3687  03A5  2BAB               	goto	l792
  3688                           	line	504
  3689                           	
  3690  03A6                     l796:	
  3691                           	
  3692  03A6                     l3132:	
  3693  03A6  087C               	movf	(location@i),w
  3694                           	; Switch size 1, requested type "space"
  3695                           ; Number of cases is 1, Range of values is 2 to 2
  3696                           ; switch strategies available:
  3697                           ; Name         Bytes Cycles
  3698                           ; simple_byte     4     3 (average)
  3699                           ; direct_byte    25    22 (fixed)
  3700                           ;	Chosen strategy is simple_byte
  3701                           
  3702  03A7  3A02               	xorlw	2^0	; case 2
  3703  03A8  1903               	skipnz
  3704  03A9  2B8F               	goto	l3126
  3705  03AA  2B99               	goto	l3128
  3706                           
  3707                           	line	511
  3708                           	
  3709  03AB                     l798:	
  3710                           	line	512
  3711                           	
  3712  03AB                     l792:	
  3713                           	line	513
  3714                           ;PR17B.c: 512: }
  3715                           ;PR17B.c: 513: if(RD4 == 0)
  3716  03AB  1283               	bcf	status, 5	;RP0=0, select bank0
  3717  03AC  1303               	bcf	status, 6	;RP1=0, select bank0
  3718  03AD  1A08               	btfsc	(68/8),(68)&7
  3719  03AE  2BB0               	goto	u2931
  3720  03AF  2BB1               	goto	u2930
  3721  03B0                     u2931:
  3722  03B0  2B77               	goto	l3118
  3723  03B1                     u2930:
  3724  03B1  2BB3               	goto	l801
  3725                           	line	515
  3726                           	
  3727  03B2                     l3134:	
  3728                           ;PR17B.c: 514: {
  3729                           ;PR17B.c: 515: while(RD4 == 0) continue;
  3730  03B2  2BB3               	goto	l801
  3731                           	
  3732  03B3                     l802:	
  3733                           	
  3734  03B3                     l801:	
  3735  03B3  1E08               	btfss	(68/8),(68)&7
  3736  03B4  2BB6               	goto	u2941
  3737  03B5  2BB7               	goto	u2940
  3738  03B6                     u2941:
  3739  03B6  2BB3               	goto	l801
  3740  03B7                     u2940:
  3741  03B7  2BC8               	goto	l3142
  3742                           	
  3743  03B8                     l803:	
  3744                           	line	516
  3745                           ;PR17B.c: 516: switch (i)
  3746  03B8  2BC8               	goto	l3142
  3747                           	line	518
  3748                           ;PR17B.c: 517: {
  3749                           ;PR17B.c: 518: case 2 : message2r();
  3750                           	
  3751  03B9                     l805:	
  3752                           	
  3753  03B9                     l3136:	
  3754  03B9  120A  118A  2166   	fcall	_message2r
              120A  118A         
  3755                           	line	519
  3756                           ;PR17B.c: 519: break;
  3757  03BE  2B77               	goto	l3118
  3758                           	line	520
  3759                           ;PR17B.c: 520: default : message1r();
  3760                           	
  3761  03BF                     l807:	
  3762                           	
  3763  03BF                     l3138:	
  3764  03BF  120A  118A  21DA   	fcall	_message1r
              120A  118A         
  3765                           	line	521
  3766                           	
  3767  03C4                     l3140:	
  3768                           ;PR17B.c: 521: i = 1;
  3769  03C4  01FC               	clrf	(location@i)
  3770  03C5  1403               	bsf	status,0
  3771  03C6  0DFC               	rlf	(location@i),f
  3772                           	line	522
  3773                           ;PR17B.c: 522: }
  3774  03C7  2B77               	goto	l3118
  3775                           	line	516
  3776                           	
  3777  03C8                     l804:	
  3778                           	
  3779  03C8                     l3142:	
  3780  03C8  087C               	movf	(location@i),w
  3781                           	; Switch size 1, requested type "space"
  3782                           ; Number of cases is 1, Range of values is 2 to 2
  3783                           ; switch strategies available:
  3784                           ; Name         Bytes Cycles
  3785                           ; simple_byte     4     3 (average)
  3786                           ; direct_byte    25    22 (fixed)
  3787                           ;	Chosen strategy is simple_byte
  3788                           
  3789  03C9  3A02               	xorlw	2^0	; case 2
  3790  03CA  1903               	skipnz
  3791  03CB  2BB9               	goto	l3136
  3792  03CC  2BBF               	goto	l3138
  3793                           
  3794                           	line	522
  3795                           	
  3796  03CD                     l806:	
  3797  03CD  2B77               	goto	l3118
  3798                           	line	524
  3799                           	
  3800  03CE                     l800:	
  3801  03CE  2B77               	goto	l3118
  3802                           	line	525
  3803                           	
  3804  03CF                     l808:	
  3805                           	line	497
  3806  03CF  2B77               	goto	l3118
  3807                           	
  3808  03D0                     l809:	
  3809                           	line	526
  3810                           	
  3811  03D0                     l810:	
  3812  03D0  0008               	return
  3813                           	opt stack 0
  3814                           GLOBAL	__end_of_location
  3815  03D1                     	__end_of_location:
  3816 ;; =============== function _location ends ============
  3817                           
  3818                           	signat	_location,88
  3819                           	global	_Option
  3820                           psect	text727,local,class=CODE,delta=2
  3821                           global __ptext727
  3822  03D1                     __ptext727:
  3823                           
  3824 ;; *************** function _Option *****************
  3825 ;; Defined at:
  3826 ;;		line 654 in file "PR17B.c"
  3827 ;; Parameters:    Size  Location     Type
  3828 ;;		None
  3829 ;; Auto vars:     Size  Location     Type
  3830 ;;  i               1   12[COMMON] unsigned char 
  3831 ;; Return value:  Size  Location     Type
  3832 ;;		None               void
  3833 ;; Registers used:
  3834 ;;		wreg, fsr0l, fsr0h, status,2, status,0, btemp+1, pclath, cstack
  3835 ;; Tracked objects:
  3836 ;;		On entry : 0/0
  3837 ;;		On exit  : 0/0
  3838 ;;		Unchanged: 0/0
  3839 ;; Data sizes:     COMMON   BANK0   BANK1   BANK3   BANK2
  3840 ;;      Params:         0       0       0       0       0
  3841 ;;      Locals:         1       0       0       0       0
  3842 ;;      Temps:          1       0       0       0       0
  3843 ;;      Totals:         2       0       0       0       0
  3844 ;;Total ram usage:        2 bytes
  3845 ;; Hardware stack levels used:    1
  3846 ;; Hardware stack levels required when called:    5
  3847 ;; This function calls:
  3848 ;;		_lcd_clr
  3849 ;;		_lcd_goto
  3850 ;;		_send_string
  3851 ;;		_Record_s
  3852 ;; This function is called by:
  3853 ;;		_Stand
  3854 ;; This function uses a non-reentrant model
  3855 ;;
  3856                           psect	text727
  3857                           	file	"PR17B.c"
  3858                           	line	654
  3859                           	global	__size_of_Option
  3860  0087                     	__size_of_Option	equ	__end_of_Option-_Option
  3861                           	
  3862  03D1                     _Option:	
  3863                           	opt	stack 1
  3864                           ; Regs used in _Option: [wreg-fsr0h+status,2+status,0+btemp+1+pclath+cstack]
  3865                           	line	655
  3866                           	
  3867  03D1                     l3068:	
  3868                           ;PR17B.c: 655: char i =1;
  3869  03D1  01FC               	clrf	(Option@i)
  3870  03D2  1403               	bsf	status,0
  3871  03D3  0DFC               	rlf	(Option@i),f
  3872                           	line	656
  3873                           	
  3874  03D4                     l3070:	
  3875                           ;PR17B.c: 656: lcd_clr();
  3876  03D4  120A  158A  25CD   	fcall	_lcd_clr
              120A  118A         
  3877                           	line	657
  3878                           	
  3879  03D9                     l3072:	
  3880                           ;PR17B.c: 657: lcd_goto(0);
  3881  03D9  3000               	movlw	(0)
  3882  03DA  120A  158A  2628   	fcall	_lcd_goto
              120A  118A         
  3883                           	line	658
  3884                           	
  3885  03DF                     l3074:	
  3886                           ;PR17B.c: 658: send_string("Option");
  3887  03DF  30BD               	movlw	low(STR_38|8000h)
  3888  03E0  00F9               	movwf	(?_send_string)
  3889  03E1  309F               	movlw	high(STR_38|8000h)
  3890  03E2  00FA               	movwf	((?_send_string))+1
  3891  03E3  120A  158A  26F6   	fcall	_send_string
              120A  118A         
  3892                           	line	659
  3893                           	
  3894  03E8                     l3076:	
  3895                           ;PR17B.c: 659: lcd_goto(20);
  3896  03E8  3014               	movlw	(014h)
  3897  03E9  120A  158A  2628   	fcall	_lcd_goto
              120A  118A         
  3898                           	line	660
  3899                           	
  3900  03EE                     l3078:	
  3901                           ;PR17B.c: 660: send_string("1. Analog Input");
  3902  03EE  30A3               	movlw	low(STR_39|8000h)
  3903  03EF  00F9               	movwf	(?_send_string)
  3904  03F0  309E               	movlw	high(STR_39|8000h)
  3905  03F1  00FA               	movwf	((?_send_string))+1
  3906  03F2  120A  158A  26F6   	fcall	_send_string
              120A  118A         
  3907  03F7  2BF8               	goto	l3080
  3908                           	line	661
  3909                           ;PR17B.c: 661: while(1)
  3910                           	
  3911  03F8                     l831:	
  3912                           	line	663
  3913                           	
  3914  03F8                     l3080:	
  3915                           ;PR17B.c: 662: {
  3916                           ;PR17B.c: 663: if(RD5 == 0)
  3917  03F8  1283               	bcf	status, 5	;RP0=0, select bank0
  3918  03F9  1303               	bcf	status, 6	;RP1=0, select bank0
  3919  03FA  1A88               	btfsc	(69/8),(69)&7
  3920  03FB  2BFD               	goto	u2871
  3921  03FC  2BFE               	goto	u2870
  3922  03FD                     u2871:
  3923  03FD  2C2C               	goto	l832
  3924  03FE                     u2870:
  3925  03FE  2C00               	goto	l833
  3926                           	line	665
  3927                           	
  3928  03FF                     l3082:	
  3929                           ;PR17B.c: 664: {
  3930                           ;PR17B.c: 665: while(RD5 == 0) continue;
  3931  03FF  2C00               	goto	l833
  3932                           	
  3933  0400                     l834:	
  3934                           	
  3935  0400                     l833:	
  3936  0400  1E88               	btfss	(69/8),(69)&7
  3937  0401  2C03               	goto	u2881
  3938  0402  2C04               	goto	u2880
  3939  0403                     u2881:
  3940  0403  2C00               	goto	l833
  3941  0404                     u2880:
  3942  0404  2C05               	goto	l3084
  3943                           	
  3944  0405                     l835:	
  3945                           	line	666
  3946                           	
  3947  0405                     l3084:	
  3948                           ;PR17B.c: 666: i++;
  3949  0405  3001               	movlw	(01h)
  3950  0406  00FB               	movwf	(??_Option+0)+0
  3951  0407  087B               	movf	(??_Option+0)+0,w
  3952  0408  07FC               	addwf	(Option@i),f
  3953                           	line	667
  3954                           	
  3955  0409                     l3086:	
  3956                           ;PR17B.c: 667: lcd_goto(20);
  3957  0409  3014               	movlw	(014h)
  3958  040A  120A  158A  2628   	fcall	_lcd_goto
              120A  118A         
  3959                           	line	668
  3960                           ;PR17B.c: 668: switch (i)
  3961  040F  2C27               	goto	l3094
  3962                           	line	670
  3963                           ;PR17B.c: 669: {
  3964                           ;PR17B.c: 670: case 2 : send_string("2. MIC         ");
  3965                           	
  3966  0410                     l837:	
  3967                           	
  3968  0410                     l3088:	
  3969  0410  3043               	movlw	low(STR_40|8000h)
  3970  0411  00F9               	movwf	(?_send_string)
  3971  0412  309E               	movlw	high(STR_40|8000h)
  3972  0413  00FA               	movwf	((?_send_string))+1
  3973  0414  120A  158A  26F6   	fcall	_send_string
              120A  118A         
  3974                           	line	671
  3975                           ;PR17B.c: 671: break;
  3976  0419  2C2C               	goto	l832
  3977                           	line	672
  3978                           ;PR17B.c: 672: default: send_string("1. Analog Input");
  3979                           	
  3980  041A                     l839:	
  3981                           	
  3982  041A                     l3090:	
  3983  041A  30A3               	movlw	low(STR_41|8000h)
  3984  041B  00F9               	movwf	(?_send_string)
  3985  041C  309E               	movlw	high(STR_41|8000h)
  3986  041D  00FA               	movwf	((?_send_string))+1
  3987  041E  120A  158A  26F6   	fcall	_send_string
              120A  118A         
  3988                           	line	673
  3989                           	
  3990  0423                     l3092:	
  3991                           ;PR17B.c: 673: i =1;
  3992  0423  01FC               	clrf	(Option@i)
  3993  0424  1403               	bsf	status,0
  3994  0425  0DFC               	rlf	(Option@i),f
  3995                           	line	674
  3996                           ;PR17B.c: 674: }
  3997  0426  2C2C               	goto	l832
  3998                           	line	668
  3999                           	
  4000  0427                     l836:	
  4001                           	
  4002  0427                     l3094:	
  4003  0427  087C               	movf	(Option@i),w
  4004                           	; Switch size 1, requested type "space"
  4005                           ; Number of cases is 1, Range of values is 2 to 2
  4006                           ; switch strategies available:
  4007                           ; Name         Bytes Cycles
  4008                           ; simple_byte     4     3 (average)
  4009                           ; direct_byte    25    22 (fixed)
  4010                           ;	Chosen strategy is simple_byte
  4011                           
  4012  0428  3A02               	xorlw	2^0	; case 2
  4013  0429  1903               	skipnz
  4014  042A  2C10               	goto	l3088
  4015  042B  2C1A               	goto	l3090
  4016                           
  4017                           	line	674
  4018                           	
  4019  042C                     l838:	
  4020                           	line	675
  4021                           	
  4022  042C                     l832:	
  4023                           	line	676
  4024                           ;PR17B.c: 675: }
  4025                           ;PR17B.c: 676: if(RD4 == 0)
  4026  042C  1283               	bcf	status, 5	;RP0=0, select bank0
  4027  042D  1303               	bcf	status, 6	;RP1=0, select bank0
  4028  042E  1A08               	btfsc	(68/8),(68)&7
  4029  042F  2C31               	goto	u2891
  4030  0430  2C32               	goto	u2890
  4031  0431                     u2891:
  4032  0431  2BF8               	goto	l3080
  4033  0432                     u2890:
  4034  0432  2C34               	goto	l841
  4035                           	line	678
  4036                           	
  4037  0433                     l3096:	
  4038                           ;PR17B.c: 677: {
  4039                           ;PR17B.c: 678: while(RD4 == 0) continue;
  4040  0433  2C34               	goto	l841
  4041                           	
  4042  0434                     l842:	
  4043                           	
  4044  0434                     l841:	
  4045  0434  1E08               	btfss	(68/8),(68)&7
  4046  0435  2C37               	goto	u2901
  4047  0436  2C38               	goto	u2900
  4048  0437                     u2901:
  4049  0437  2C34               	goto	l841
  4050  0438                     u2900:
  4051  0438  2C4F               	goto	l3104
  4052                           	
  4053  0439                     l843:	
  4054                           	line	679
  4055                           ;PR17B.c: 679: switch (i)
  4056  0439  2C4F               	goto	l3104
  4057                           	line	681
  4058                           ;PR17B.c: 680: {
  4059                           ;PR17B.c: 681: case 2 : RD3 = 1; Record_s();
  4060                           	
  4061  043A                     l845:	
  4062  043A  1283               	bcf	status, 5	;RP0=0, select bank0
  4063  043B  1303               	bcf	status, 6	;RP1=0, select bank0
  4064  043C  1588               	bsf	(67/8),(67)&7
  4065                           	
  4066  043D                     l3098:	
  4067  043D  120A  118A  20F5   	fcall	_Record_s
              120A  118A         
  4068                           	line	682
  4069                           ;PR17B.c: 682: break;
  4070  0442  2BF8               	goto	l3080
  4071                           	line	683
  4072                           ;PR17B.c: 683: default : RD3 = 0; Record_s();
  4073                           	
  4074  0443                     l847:	
  4075  0443  1283               	bcf	status, 5	;RP0=0, select bank0
  4076  0444  1303               	bcf	status, 6	;RP1=0, select bank0
  4077  0445  1188               	bcf	(67/8),(67)&7
  4078                           	
  4079  0446                     l3100:	
  4080  0446  120A  118A  20F5   	fcall	_Record_s
              120A  118A         
  4081                           	line	684
  4082                           	
  4083  044B                     l3102:	
  4084                           ;PR17B.c: 684: i = 1;
  4085  044B  01FC               	clrf	(Option@i)
  4086  044C  1403               	bsf	status,0
  4087  044D  0DFC               	rlf	(Option@i),f
  4088                           	line	685
  4089                           ;PR17B.c: 685: }
  4090  044E  2BF8               	goto	l3080
  4091                           	line	679
  4092                           	
  4093  044F                     l844:	
  4094                           	
  4095  044F                     l3104:	
  4096  044F  087C               	movf	(Option@i),w
  4097                           	; Switch size 1, requested type "space"
  4098                           ; Number of cases is 1, Range of values is 2 to 2
  4099                           ; switch strategies available:
  4100                           ; Name         Bytes Cycles
  4101                           ; simple_byte     4     3 (average)
  4102                           ; direct_byte    25    22 (fixed)
  4103                           ;	Chosen strategy is simple_byte
  4104                           
  4105  0450  3A02               	xorlw	2^0	; case 2
  4106  0451  1903               	skipnz
  4107  0452  2C3A               	goto	l845
  4108  0453  2C43               	goto	l847
  4109                           
  4110                           	line	685
  4111                           	
  4112  0454                     l846:	
  4113  0454  2BF8               	goto	l3080
  4114                           	line	687
  4115                           	
  4116  0455                     l840:	
  4117  0455  2BF8               	goto	l3080
  4118                           	line	688
  4119                           	
  4120  0456                     l848:	
  4121                           	line	661
  4122  0456  2BF8               	goto	l3080
  4123                           	
  4124  0457                     l849:	
  4125                           	line	689
  4126                           	
  4127  0457                     l850:	
  4128  0457  0008               	return
  4129                           	opt stack 0
  4130                           GLOBAL	__end_of_Option
  4131  0458                     	__end_of_Option:
  4132 ;; =============== function _Option ends ============
  4133                           
  4134                           	signat	_Option,88
  4135                           	global	_Play
  4136                           psect	text728,local,class=CODE,delta=2
  4137                           global __ptext728
  4138  02CF                     __ptext728:
  4139                           
  4140 ;; *************** function _Play *****************
  4141 ;; Defined at:
  4142 ;;		line 368 in file "PR17B.c"
  4143 ;; Parameters:    Size  Location     Type
  4144 ;;		None
  4145 ;; Auto vars:     Size  Location     Type
  4146 ;;  i               1   12[COMMON] unsigned char 
  4147 ;; Return value:  Size  Location     Type
  4148 ;;		None               void
  4149 ;; Registers used:
  4150 ;;		wreg, fsr0l, fsr0h, status,2, status,0, btemp+1, pclath, cstack
  4151 ;; Tracked objects:
  4152 ;;		On entry : 0/0
  4153 ;;		On exit  : 0/0
  4154 ;;		Unchanged: 0/0
  4155 ;; Data sizes:     COMMON   BANK0   BANK1   BANK3   BANK2
  4156 ;;      Params:         0       0       0       0       0
  4157 ;;      Locals:         1       0       0       0       0
  4158 ;;      Temps:          1       0       0       0       0
  4159 ;;      Totals:         2       0       0       0       0
  4160 ;;Total ram usage:        2 bytes
  4161 ;; Hardware stack levels used:    1
  4162 ;; Hardware stack levels required when called:    5
  4163 ;; This function calls:
  4164 ;;		_lcd_clr
  4165 ;;		_lcd_goto
  4166 ;;		_send_string
  4167 ;;		_message2p
  4168 ;;		_message1p
  4169 ;; This function is called by:
  4170 ;;		_Spi
  4171 ;; This function uses a non-reentrant model
  4172 ;;
  4173                           psect	text728
  4174                           	file	"PR17B.c"
  4175                           	line	368
  4176                           	global	__size_of_Play
  4177  0081                     	__size_of_Play	equ	__end_of_Play-_Play
  4178                           	
  4179  02CF                     _Play:	
  4180                           	opt	stack 1
  4181                           ; Regs used in _Play: [wreg-fsr0h+status,2+status,0+btemp+1+pclath+cstack]
  4182                           	line	369
  4183                           	
  4184  02CF                     l3030:	
  4185                           ;PR17B.c: 369: char i =1;
  4186  02CF  01FC               	clrf	(Play@i)
  4187  02D0  1403               	bsf	status,0
  4188  02D1  0DFC               	rlf	(Play@i),f
  4189                           	line	370
  4190                           	
  4191  02D2                     l3032:	
  4192                           ;PR17B.c: 370: lcd_clr();
  4193  02D2  120A  158A  25CD   	fcall	_lcd_clr
              120A  118A         
  4194                           	line	371
  4195                           	
  4196  02D7                     l3034:	
  4197                           ;PR17B.c: 371: lcd_goto(0);
  4198  02D7  3000               	movlw	(0)
  4199  02D8  120A  158A  2628   	fcall	_lcd_goto
              120A  118A         
  4200                           	line	372
  4201                           	
  4202  02DD                     l3036:	
  4203                           ;PR17B.c: 372: send_string("Location");
  4204  02DD  30A5               	movlw	low(STR_12|8000h)
  4205  02DE  00F9               	movwf	(?_send_string)
  4206  02DF  309F               	movlw	high(STR_12|8000h)
  4207  02E0  00FA               	movwf	((?_send_string))+1
  4208  02E1  120A  158A  26F6   	fcall	_send_string
              120A  118A         
  4209                           	line	373
  4210                           	
  4211  02E6                     l3038:	
  4212                           ;PR17B.c: 373: lcd_goto(20);
  4213  02E6  3014               	movlw	(014h)
  4214  02E7  120A  158A  2628   	fcall	_lcd_goto
              120A  118A         
  4215                           	line	374
  4216                           	
  4217  02EC                     l3040:	
  4218                           ;PR17B.c: 374: send_string("1. Message 1   ");
  4219  02EC  3063               	movlw	low(STR_13|8000h)
  4220  02ED  00F9               	movwf	(?_send_string)
  4221  02EE  309E               	movlw	high(STR_13|8000h)
  4222  02EF  00FA               	movwf	((?_send_string))+1
  4223  02F0  120A  158A  26F6   	fcall	_send_string
              120A  118A         
  4224  02F5  2AF6               	goto	l3042
  4225                           	line	375
  4226                           ;PR17B.c: 375: while(1)
  4227                           	
  4228  02F6                     l741:	
  4229                           	line	377
  4230                           	
  4231  02F6                     l3042:	
  4232                           ;PR17B.c: 376: {
  4233                           ;PR17B.c: 377: if(RD5 == 0)
  4234  02F6  1283               	bcf	status, 5	;RP0=0, select bank0
  4235  02F7  1303               	bcf	status, 6	;RP1=0, select bank0
  4236  02F8  1A88               	btfsc	(69/8),(69)&7
  4237  02F9  2AFB               	goto	u2831
  4238  02FA  2AFC               	goto	u2830
  4239  02FB                     u2831:
  4240  02FB  2B2A               	goto	l742
  4241  02FC                     u2830:
  4242  02FC  2AFE               	goto	l743
  4243                           	line	379
  4244                           	
  4245  02FD                     l3044:	
  4246                           ;PR17B.c: 378: {
  4247                           ;PR17B.c: 379: while(RD5 == 0) continue;
  4248  02FD  2AFE               	goto	l743
  4249                           	
  4250  02FE                     l744:	
  4251                           	
  4252  02FE                     l743:	
  4253  02FE  1E88               	btfss	(69/8),(69)&7
  4254  02FF  2B01               	goto	u2841
  4255  0300  2B02               	goto	u2840
  4256  0301                     u2841:
  4257  0301  2AFE               	goto	l743
  4258  0302                     u2840:
  4259  0302  2B03               	goto	l3046
  4260                           	
  4261  0303                     l745:	
  4262                           	line	380
  4263                           	
  4264  0303                     l3046:	
  4265                           ;PR17B.c: 380: i++;
  4266  0303  3001               	movlw	(01h)
  4267  0304  00FB               	movwf	(??_Play+0)+0
  4268  0305  087B               	movf	(??_Play+0)+0,w
  4269  0306  07FC               	addwf	(Play@i),f
  4270                           	line	381
  4271                           	
  4272  0307                     l3048:	
  4273                           ;PR17B.c: 381: lcd_goto(20);
  4274  0307  3014               	movlw	(014h)
  4275  0308  120A  158A  2628   	fcall	_lcd_goto
              120A  118A         
  4276                           	line	382
  4277                           ;PR17B.c: 382: switch (i)
  4278  030D  2B25               	goto	l3056
  4279                           	line	384
  4280                           ;PR17B.c: 383: {
  4281                           ;PR17B.c: 384: case 2 : send_string("2. Message 2");
  4282                           	
  4283  030E                     l747:	
  4284                           	
  4285  030E                     l3050:	
  4286  030E  30F9               	movlw	low(STR_14|8000h)
  4287  030F  00F9               	movwf	(?_send_string)
  4288  0310  309E               	movlw	high(STR_14|8000h)
  4289  0311  00FA               	movwf	((?_send_string))+1
  4290  0312  120A  158A  26F6   	fcall	_send_string
              120A  118A         
  4291                           	line	385
  4292                           ;PR17B.c: 385: break;
  4293  0317  2B2A               	goto	l742
  4294                           	line	387
  4295                           ;PR17B.c: 387: default: send_string("1. Message 1   ");
  4296                           	
  4297  0318                     l749:	
  4298                           	
  4299  0318                     l3052:	
  4300  0318  3063               	movlw	low(STR_15|8000h)
  4301  0319  00F9               	movwf	(?_send_string)
  4302  031A  309E               	movlw	high(STR_15|8000h)
  4303  031B  00FA               	movwf	((?_send_string))+1
  4304  031C  120A  158A  26F6   	fcall	_send_string
              120A  118A         
  4305                           	line	388
  4306                           	
  4307  0321                     l3054:	
  4308                           ;PR17B.c: 388: i =1;
  4309  0321  01FC               	clrf	(Play@i)
  4310  0322  1403               	bsf	status,0
  4311  0323  0DFC               	rlf	(Play@i),f
  4312                           	line	389
  4313                           ;PR17B.c: 389: }
  4314  0324  2B2A               	goto	l742
  4315                           	line	382
  4316                           	
  4317  0325                     l746:	
  4318                           	
  4319  0325                     l3056:	
  4320  0325  087C               	movf	(Play@i),w
  4321                           	; Switch size 1, requested type "space"
  4322                           ; Number of cases is 1, Range of values is 2 to 2
  4323                           ; switch strategies available:
  4324                           ; Name         Bytes Cycles
  4325                           ; simple_byte     4     3 (average)
  4326                           ; direct_byte    25    22 (fixed)
  4327                           ;	Chosen strategy is simple_byte
  4328                           
  4329  0326  3A02               	xorlw	2^0	; case 2
  4330  0327  1903               	skipnz
  4331  0328  2B0E               	goto	l3050
  4332  0329  2B18               	goto	l3052
  4333                           
  4334                           	line	389
  4335                           	
  4336  032A                     l748:	
  4337                           	line	390
  4338                           	
  4339  032A                     l742:	
  4340                           	line	391
  4341                           ;PR17B.c: 390: }
  4342                           ;PR17B.c: 391: if(RD4 == 0)
  4343  032A  1283               	bcf	status, 5	;RP0=0, select bank0
  4344  032B  1303               	bcf	status, 6	;RP1=0, select bank0
  4345  032C  1A08               	btfsc	(68/8),(68)&7
  4346  032D  2B2F               	goto	u2851
  4347  032E  2B30               	goto	u2850
  4348  032F                     u2851:
  4349  032F  2AF6               	goto	l3042
  4350  0330                     u2850:
  4351  0330  2B32               	goto	l751
  4352                           	line	393
  4353                           	
  4354  0331                     l3058:	
  4355                           ;PR17B.c: 392: {
  4356                           ;PR17B.c: 393: while(RD4 == 0) continue;
  4357  0331  2B32               	goto	l751
  4358                           	
  4359  0332                     l752:	
  4360                           	
  4361  0332                     l751:	
  4362  0332  1E08               	btfss	(68/8),(68)&7
  4363  0333  2B35               	goto	u2861
  4364  0334  2B36               	goto	u2860
  4365  0335                     u2861:
  4366  0335  2B32               	goto	l751
  4367  0336                     u2860:
  4368  0336  2B47               	goto	l3066
  4369                           	
  4370  0337                     l753:	
  4371                           	line	394
  4372                           ;PR17B.c: 394: switch (i)
  4373  0337  2B47               	goto	l3066
  4374                           	line	396
  4375                           ;PR17B.c: 395: {
  4376                           ;PR17B.c: 396: case 2 : message2p();
  4377                           	
  4378  0338                     l755:	
  4379                           	
  4380  0338                     l3060:	
  4381  0338  120A  118A  2013   	fcall	_message2p
              120A  118A         
  4382                           	line	397
  4383                           ;PR17B.c: 397: break;
  4384  033D  2AF6               	goto	l3042
  4385                           	line	398
  4386                           ;PR17B.c: 398: default : message1p();
  4387                           	
  4388  033E                     l757:	
  4389                           	
  4390  033E                     l3062:	
  4391  033E  120A  118A  2084   	fcall	_message1p
              120A  118A         
  4392                           	line	399
  4393                           	
  4394  0343                     l3064:	
  4395                           ;PR17B.c: 399: i = 1;
  4396  0343  01FC               	clrf	(Play@i)
  4397  0344  1403               	bsf	status,0
  4398  0345  0DFC               	rlf	(Play@i),f
  4399                           	line	400
  4400                           ;PR17B.c: 400: }
  4401  0346  2AF6               	goto	l3042
  4402                           	line	394
  4403                           	
  4404  0347                     l754:	
  4405                           	
  4406  0347                     l3066:	
  4407  0347  087C               	movf	(Play@i),w
  4408                           	; Switch size 1, requested type "space"
  4409                           ; Number of cases is 1, Range of values is 2 to 2
  4410                           ; switch strategies available:
  4411                           ; Name         Bytes Cycles
  4412                           ; simple_byte     4     3 (average)
  4413                           ; direct_byte    25    22 (fixed)
  4414                           ;	Chosen strategy is simple_byte
  4415                           
  4416  0348  3A02               	xorlw	2^0	; case 2
  4417  0349  1903               	skipnz
  4418  034A  2B38               	goto	l3060
  4419  034B  2B3E               	goto	l3062
  4420                           
  4421                           	line	400
  4422                           	
  4423  034C                     l756:	
  4424  034C  2AF6               	goto	l3042
  4425                           	line	402
  4426                           	
  4427  034D                     l750:	
  4428  034D  2AF6               	goto	l3042
  4429                           	line	403
  4430                           	
  4431  034E                     l758:	
  4432                           	line	375
  4433  034E  2AF6               	goto	l3042
  4434                           	
  4435  034F                     l759:	
  4436                           	line	404
  4437                           	
  4438  034F                     l760:	
  4439  034F  0008               	return
  4440                           	opt stack 0
  4441                           GLOBAL	__end_of_Play
  4442  0350                     	__end_of_Play:
  4443 ;; =============== function _Play ends ============
  4444                           
  4445                           	signat	_Play,88
  4446                           	global	_Erase
  4447                           psect	text729,local,class=CODE,delta=2
  4448                           global __ptext729
  4449  024E                     __ptext729:
  4450                           
  4451 ;; *************** function _Erase *****************
  4452 ;; Defined at:
  4453 ;;		line 724 in file "PR17B.c"
  4454 ;; Parameters:    Size  Location     Type
  4455 ;;		None
  4456 ;; Auto vars:     Size  Location     Type
  4457 ;;  i               1   12[COMMON] unsigned char 
  4458 ;; Return value:  Size  Location     Type
  4459 ;;		None               void
  4460 ;; Registers used:
  4461 ;;		wreg, fsr0l, fsr0h, status,2, status,0, btemp+1, pclath, cstack
  4462 ;; Tracked objects:
  4463 ;;		On entry : 0/0
  4464 ;;		On exit  : 0/0
  4465 ;;		Unchanged: 0/0
  4466 ;; Data sizes:     COMMON   BANK0   BANK1   BANK3   BANK2
  4467 ;;      Params:         0       0       0       0       0
  4468 ;;      Locals:         1       0       0       0       0
  4469 ;;      Temps:          1       0       0       0       0
  4470 ;;      Totals:         2       0       0       0       0
  4471 ;;Total ram usage:        2 bytes
  4472 ;; Hardware stack levels used:    1
  4473 ;; Hardware stack levels required when called:    5
  4474 ;; This function calls:
  4475 ;;		_lcd_clr
  4476 ;;		_lcd_goto
  4477 ;;		_send_string
  4478 ;;		_g_erase
  4479 ;;		_erase
  4480 ;; This function is called by:
  4481 ;;		_main
  4482 ;; This function uses a non-reentrant model
  4483 ;;
  4484                           psect	text729
  4485                           	file	"PR17B.c"
  4486                           	line	724
  4487                           	global	__size_of_Erase
  4488  0081                     	__size_of_Erase	equ	__end_of_Erase-_Erase
  4489                           	
  4490  024E                     _Erase:	
  4491                           	opt	stack 2
  4492                           ; Regs used in _Erase: [wreg-fsr0h+status,2+status,0+btemp+1+pclath+cstack]
  4493                           	line	725
  4494                           	
  4495  024E                     l2992:	
  4496                           ;PR17B.c: 725: char i =1;
  4497  024E  01FC               	clrf	(Erase@i)
  4498  024F  1403               	bsf	status,0
  4499  0250  0DFC               	rlf	(Erase@i),f
  4500                           	line	726
  4501                           	
  4502  0251                     l2994:	
  4503                           ;PR17B.c: 726: lcd_clr();
  4504  0251  120A  158A  25CD   	fcall	_lcd_clr
              120A  118A         
  4505                           	line	727
  4506                           	
  4507  0256                     l2996:	
  4508                           ;PR17B.c: 727: lcd_goto(0);
  4509  0256  3000               	movlw	(0)
  4510  0257  120A  158A  2628   	fcall	_lcd_goto
              120A  118A         
  4511                           	line	728
  4512                           	
  4513  025C                     l2998:	
  4514                           ;PR17B.c: 728: send_string("Decision");
  4515  025C  309C               	movlw	low(STR_46|8000h)
  4516  025D  00F9               	movwf	(?_send_string)
  4517  025E  309F               	movlw	high(STR_46|8000h)
  4518  025F  00FA               	movwf	((?_send_string))+1
  4519  0260  120A  158A  26F6   	fcall	_send_string
              120A  118A         
  4520                           	line	729
  4521                           	
  4522  0265                     l3000:	
  4523                           ;PR17B.c: 729: lcd_goto(20);
  4524  0265  3014               	movlw	(014h)
  4525  0266  120A  158A  2628   	fcall	_lcd_goto
              120A  118A         
  4526                           	line	730
  4527                           	
  4528  026B                     l3002:	
  4529                           ;PR17B.c: 730: send_string("1. Erase       ");
  4530  026B  3053               	movlw	low(STR_47|8000h)
  4531  026C  00F9               	movwf	(?_send_string)
  4532  026D  309E               	movlw	high(STR_47|8000h)
  4533  026E  00FA               	movwf	((?_send_string))+1
  4534  026F  120A  158A  26F6   	fcall	_send_string
              120A  118A         
  4535  0274  2A75               	goto	l3004
  4536                           	line	731
  4537                           ;PR17B.c: 731: while(1)
  4538                           	
  4539  0275                     l876:	
  4540                           	line	733
  4541                           	
  4542  0275                     l3004:	
  4543                           ;PR17B.c: 732: {
  4544                           ;PR17B.c: 733: if(RD5 == 0)
  4545  0275  1283               	bcf	status, 5	;RP0=0, select bank0
  4546  0276  1303               	bcf	status, 6	;RP1=0, select bank0
  4547  0277  1A88               	btfsc	(69/8),(69)&7
  4548  0278  2A7A               	goto	u2791
  4549  0279  2A7B               	goto	u2790
  4550  027A                     u2791:
  4551  027A  2AA9               	goto	l877
  4552  027B                     u2790:
  4553  027B  2A7D               	goto	l878
  4554                           	line	735
  4555                           	
  4556  027C                     l3006:	
  4557                           ;PR17B.c: 734: {
  4558                           ;PR17B.c: 735: while(RD5 == 0) continue;
  4559  027C  2A7D               	goto	l878
  4560                           	
  4561  027D                     l879:	
  4562                           	
  4563  027D                     l878:	
  4564  027D  1E88               	btfss	(69/8),(69)&7
  4565  027E  2A80               	goto	u2801
  4566  027F  2A81               	goto	u2800
  4567  0280                     u2801:
  4568  0280  2A7D               	goto	l878
  4569  0281                     u2800:
  4570  0281  2A82               	goto	l3008
  4571                           	
  4572  0282                     l880:	
  4573                           	line	736
  4574                           	
  4575  0282                     l3008:	
  4576                           ;PR17B.c: 736: i++;
  4577  0282  3001               	movlw	(01h)
  4578  0283  00FB               	movwf	(??_Erase+0)+0
  4579  0284  087B               	movf	(??_Erase+0)+0,w
  4580  0285  07FC               	addwf	(Erase@i),f
  4581                           	line	737
  4582                           	
  4583  0286                     l3010:	
  4584                           ;PR17B.c: 737: lcd_goto(20);
  4585  0286  3014               	movlw	(014h)
  4586  0287  120A  158A  2628   	fcall	_lcd_goto
              120A  118A         
  4587                           	line	738
  4588                           ;PR17B.c: 738: switch (i)
  4589  028C  2AA4               	goto	l3018
  4590                           	line	740
  4591                           ;PR17B.c: 739: {
  4592                           ;PR17B.c: 740: case 2 : send_string("2. Global Erase");
  4593                           	
  4594  028D                     l882:	
  4595                           	
  4596  028D                     l3012:	
  4597  028D  3093               	movlw	low(STR_48|8000h)
  4598  028E  00F9               	movwf	(?_send_string)
  4599  028F  309E               	movlw	high(STR_48|8000h)
  4600  0290  00FA               	movwf	((?_send_string))+1
  4601  0291  120A  158A  26F6   	fcall	_send_string
              120A  118A         
  4602                           	line	741
  4603                           ;PR17B.c: 741: break;
  4604  0296  2AA9               	goto	l877
  4605                           	line	743
  4606                           ;PR17B.c: 743: default: send_string("1. Erase       ");
  4607                           	
  4608  0297                     l884:	
  4609                           	
  4610  0297                     l3014:	
  4611  0297  3053               	movlw	low(STR_49|8000h)
  4612  0298  00F9               	movwf	(?_send_string)
  4613  0299  309E               	movlw	high(STR_49|8000h)
  4614  029A  00FA               	movwf	((?_send_string))+1
  4615  029B  120A  158A  26F6   	fcall	_send_string
              120A  118A         
  4616                           	line	744
  4617                           	
  4618  02A0                     l3016:	
  4619                           ;PR17B.c: 744: i =1;
  4620  02A0  01FC               	clrf	(Erase@i)
  4621  02A1  1403               	bsf	status,0
  4622  02A2  0DFC               	rlf	(Erase@i),f
  4623                           	line	745
  4624                           ;PR17B.c: 745: }
  4625  02A3  2AA9               	goto	l877
  4626                           	line	738
  4627                           	
  4628  02A4                     l881:	
  4629                           	
  4630  02A4                     l3018:	
  4631  02A4  087C               	movf	(Erase@i),w
  4632                           	; Switch size 1, requested type "space"
  4633                           ; Number of cases is 1, Range of values is 2 to 2
  4634                           ; switch strategies available:
  4635                           ; Name         Bytes Cycles
  4636                           ; simple_byte     4     3 (average)
  4637                           ; direct_byte    25    22 (fixed)
  4638                           ;	Chosen strategy is simple_byte
  4639                           
  4640  02A5  3A02               	xorlw	2^0	; case 2
  4641  02A6  1903               	skipnz
  4642  02A7  2A8D               	goto	l3012
  4643  02A8  2A97               	goto	l3014
  4644                           
  4645                           	line	745
  4646                           	
  4647  02A9                     l883:	
  4648                           	line	746
  4649                           	
  4650  02A9                     l877:	
  4651                           	line	747
  4652                           ;PR17B.c: 746: }
  4653                           ;PR17B.c: 747: if(RD4 == 0)
  4654  02A9  1283               	bcf	status, 5	;RP0=0, select bank0
  4655  02AA  1303               	bcf	status, 6	;RP1=0, select bank0
  4656  02AB  1A08               	btfsc	(68/8),(68)&7
  4657  02AC  2AAE               	goto	u2811
  4658  02AD  2AAF               	goto	u2810
  4659  02AE                     u2811:
  4660  02AE  2A75               	goto	l3004
  4661  02AF                     u2810:
  4662  02AF  2AB1               	goto	l886
  4663                           	line	749
  4664                           	
  4665  02B0                     l3020:	
  4666                           ;PR17B.c: 748: {
  4667                           ;PR17B.c: 749: while(RD4 == 0) continue;
  4668  02B0  2AB1               	goto	l886
  4669                           	
  4670  02B1                     l887:	
  4671                           	
  4672  02B1                     l886:	
  4673  02B1  1E08               	btfss	(68/8),(68)&7
  4674  02B2  2AB4               	goto	u2821
  4675  02B3  2AB5               	goto	u2820
  4676  02B4                     u2821:
  4677  02B4  2AB1               	goto	l886
  4678  02B5                     u2820:
  4679  02B5  2AC6               	goto	l3028
  4680                           	
  4681  02B6                     l888:	
  4682                           	line	750
  4683                           ;PR17B.c: 750: switch (i)
  4684  02B6  2AC6               	goto	l3028
  4685                           	line	752
  4686                           ;PR17B.c: 751: {
  4687                           ;PR17B.c: 752: case 2 : g_erase();
  4688                           	
  4689  02B7                     l890:	
  4690                           	
  4691  02B7                     l3022:	
  4692  02B7  120A  158A  2766   	fcall	_g_erase
              120A  118A         
  4693                           	line	753
  4694                           ;PR17B.c: 753: break;
  4695  02BC  2A75               	goto	l3004
  4696                           	line	754
  4697                           ;PR17B.c: 754: default : erase();
  4698                           	
  4699  02BD                     l892:	
  4700                           	
  4701  02BD                     l3024:	
  4702  02BD  120A  158A  27B3   	fcall	_erase
              120A  118A         
  4703                           	line	755
  4704                           	
  4705  02C2                     l3026:	
  4706                           ;PR17B.c: 755: i = 1;
  4707  02C2  01FC               	clrf	(Erase@i)
  4708  02C3  1403               	bsf	status,0
  4709  02C4  0DFC               	rlf	(Erase@i),f
  4710                           	line	756
  4711                           ;PR17B.c: 756: }
  4712  02C5  2A75               	goto	l3004
  4713                           	line	750
  4714                           	
  4715  02C6                     l889:	
  4716                           	
  4717  02C6                     l3028:	
  4718  02C6  087C               	movf	(Erase@i),w
  4719                           	; Switch size 1, requested type "space"
  4720                           ; Number of cases is 1, Range of values is 2 to 2
  4721                           ; switch strategies available:
  4722                           ; Name         Bytes Cycles
  4723                           ; simple_byte     4     3 (average)
  4724                           ; direct_byte    25    22 (fixed)
  4725                           ;	Chosen strategy is simple_byte
  4726                           
  4727  02C7  3A02               	xorlw	2^0	; case 2
  4728  02C8  1903               	skipnz
  4729  02C9  2AB7               	goto	l3022
  4730  02CA  2ABD               	goto	l3024
  4731                           
  4732                           	line	756
  4733                           	
  4734  02CB                     l891:	
  4735  02CB  2A75               	goto	l3004
  4736                           	line	758
  4737                           	
  4738  02CC                     l885:	
  4739  02CC  2A75               	goto	l3004
  4740                           	line	759
  4741                           	
  4742  02CD                     l893:	
  4743                           	line	731
  4744  02CD  2A75               	goto	l3004
  4745                           	
  4746  02CE                     l894:	
  4747                           	line	760
  4748                           	
  4749  02CE                     l895:	
  4750  02CE  0008               	return
  4751                           	opt stack 0
  4752                           GLOBAL	__end_of_Erase
  4753  02CF                     	__end_of_Erase:
  4754 ;; =============== function _Erase ends ============
  4755                           
  4756                           	signat	_Erase,88
  4757                           	global	_erase
  4758                           psect	text730,local,class=CODE,delta=2
  4759                           global __ptext730
  4760  0FB3                     __ptext730:
  4761                           
  4762 ;; *************** function _erase *****************
  4763 ;; Defined at:
  4764 ;;		line 763 in file "PR17B.c"
  4765 ;; Parameters:    Size  Location     Type
  4766 ;;		None
  4767 ;; Auto vars:     Size  Location     Type
  4768 ;;		None
  4769 ;; Return value:  Size  Location     Type
  4770 ;;		None               void
  4771 ;; Registers used:
  4772 ;;		wreg, fsr0l, fsr0h, status,2, status,0, btemp+1, pclath, cstack
  4773 ;; Tracked objects:
  4774 ;;		On entry : 0/0
  4775 ;;		On exit  : 0/0
  4776 ;;		Unchanged: 0/0
  4777 ;; Data sizes:     COMMON   BANK0   BANK1   BANK3   BANK2
  4778 ;;      Params:         0       0       0       0       0
  4779 ;;      Locals:         0       0       0       0       0
  4780 ;;      Temps:          0       0       0       0       0
  4781 ;;      Totals:         0       0       0       0       0
  4782 ;;Total ram usage:        0 bytes
  4783 ;; Hardware stack levels used:    1
  4784 ;; Hardware stack levels required when called:    4
  4785 ;; This function calls:
  4786 ;;		_uc_send_receive_spi
  4787 ;;		_tmr_delay
  4788 ;;		_lcd_clr
  4789 ;;		_lcd_goto
  4790 ;;		_send_string
  4791 ;; This function is called by:
  4792 ;;		_Erase
  4793 ;; This function uses a non-reentrant model
  4794 ;;
  4795                           psect	text730
  4796                           	file	"PR17B.c"
  4797                           	line	763
  4798                           	global	__size_of_erase
  4799  004D                     	__size_of_erase	equ	__end_of_erase-_erase
  4800                           	
  4801  0FB3                     _erase:	
  4802                           	opt	stack 2
  4803                           ; Regs used in _erase: [wreg-fsr0h+status,2+status,0+btemp+1+pclath+cstack]
  4804                           	line	764
  4805                           	
  4806  0FB3                     l2980:	
  4807                           ;PR17B.c: 764: RE1 = 0;
  4808  0FB3  1283               	bcf	status, 5	;RP0=0, select bank0
  4809  0FB4  1303               	bcf	status, 6	;RP1=0, select bank0
  4810  0FB5  1089               	bcf	(73/8),(73)&7
  4811                           	line	765
  4812                           	
  4813  0FB6                     l2982:	
  4814                           ;PR17B.c: 765: uc_send_receive_spi(0b10000000);
  4815  0FB6  3080               	movlw	(080h)
  4816  0FB7  120A  158A  25BB   	fcall	_uc_send_receive_spi
              120A  158A         
  4817                           	line	766
  4818                           ;PR17B.c: 766: uc_send_receive_spi(0b00000000);
  4819  0FBC  3000               	movlw	(0)
  4820  0FBD  120A  158A  25BB   	fcall	_uc_send_receive_spi
              120A  158A         
  4821                           	line	767
  4822                           	
  4823  0FC2                     l2984:	
  4824                           ;PR17B.c: 767: RE1 = 1;
  4825  0FC2  1283               	bcf	status, 5	;RP0=0, select bank0
  4826  0FC3  1303               	bcf	status, 6	;RP1=0, select bank0
  4827  0FC4  1489               	bsf	(73/8),(73)&7
  4828                           	line	768
  4829                           ;PR17B.c: 768: tmr_delay(10);
  4830  0FC5  300A               	movlw	low(0Ah)
  4831  0FC6  00F0               	movwf	(?_tmr_delay)
  4832  0FC7  3000               	movlw	high(0Ah)
  4833  0FC8  00F1               	movwf	((?_tmr_delay))+1
  4834  0FC9  120A  158A  26A4   	fcall	_tmr_delay
              120A  158A         
  4835                           	line	770
  4836                           	
  4837  0FCE                     l2986:	
  4838                           ;PR17B.c: 770: RE1 = 0;
  4839  0FCE  1283               	bcf	status, 5	;RP0=0, select bank0
  4840  0FCF  1303               	bcf	status, 6	;RP1=0, select bank0
  4841  0FD0  1089               	bcf	(73/8),(73)&7
  4842                           	line	771
  4843                           ;PR17B.c: 771: uc_send_receive_spi(0b01000010);
  4844  0FD1  3042               	movlw	(042h)
  4845  0FD2  120A  158A  25BB   	fcall	_uc_send_receive_spi
              120A  158A         
  4846                           	line	772
  4847                           ;PR17B.c: 772: uc_send_receive_spi(0b00000000);
  4848  0FD7  3000               	movlw	(0)
  4849  0FD8  120A  158A  25BB   	fcall	_uc_send_receive_spi
              120A  158A         
  4850                           	line	773
  4851                           	
  4852  0FDD                     l2988:	
  4853                           ;PR17B.c: 773: RE1 = 1;
  4854  0FDD  1283               	bcf	status, 5	;RP0=0, select bank0
  4855  0FDE  1303               	bcf	status, 6	;RP1=0, select bank0
  4856  0FDF  1489               	bsf	(73/8),(73)&7
  4857                           	line	774
  4858                           ;PR17B.c: 774: tmr_delay(100);
  4859  0FE0  3064               	movlw	low(064h)
  4860  0FE1  00F0               	movwf	(?_tmr_delay)
  4861  0FE2  3000               	movlw	high(064h)
  4862  0FE3  00F1               	movwf	((?_tmr_delay))+1
  4863  0FE4  120A  158A  26A4   	fcall	_tmr_delay
              120A  158A         
  4864                           	line	775
  4865                           ;PR17B.c: 775: lcd_clr();
  4866  0FE9  120A  158A  25CD   	fcall	_lcd_clr
              120A  158A         
  4867                           	line	776
  4868                           ;PR17B.c: 776: lcd_goto(20);
  4869  0FEE  3014               	movlw	(014h)
  4870  0FEF  120A  158A  2628   	fcall	_lcd_goto
              120A  158A         
  4871                           	line	777
  4872                           	
  4873  0FF4                     l2990:	
  4874                           ;PR17B.c: 777: send_string("Erased");
  4875  0FF4  30B6               	movlw	low(STR_50|8000h)
  4876  0FF5  00F9               	movwf	(?_send_string)
  4877  0FF6  309F               	movlw	high(STR_50|8000h)
  4878  0FF7  00FA               	movwf	((?_send_string))+1
  4879  0FF8  120A  158A  26F6   	fcall	_send_string
              120A  158A         
  4880  0FFD  2FFE               	goto	l899
  4881                           	line	778
  4882                           ;PR17B.c: 778: while(1);
  4883                           	
  4884  0FFE                     l898:	
  4885                           	
  4886  0FFE                     l899:	
  4887  0FFE  2FFE               	goto	l899
  4888                           	
  4889  0FFF                     l900:	
  4890                           	line	780
  4891                           	
  4892  0FFF                     l901:	
  4893  0FFF  0008               	return
  4894                           	opt stack 0
  4895                           GLOBAL	__end_of_erase
  4896  1000                     	__end_of_erase:
  4897 ;; =============== function _erase ends ============
  4898                           
  4899                           	signat	_erase,88
  4900                           	global	_g_erase
  4901                           psect	text731,local,class=CODE,delta=2
  4902                           global __ptext731
  4903  0F66                     __ptext731:
  4904                           
  4905 ;; *************** function _g_erase *****************
  4906 ;; Defined at:
  4907 ;;		line 783 in file "PR17B.c"
  4908 ;; Parameters:    Size  Location     Type
  4909 ;;		None
  4910 ;; Auto vars:     Size  Location     Type
  4911 ;;		None
  4912 ;; Return value:  Size  Location     Type
  4913 ;;		None               void
  4914 ;; Registers used:
  4915 ;;		wreg, fsr0l, fsr0h, status,2, status,0, btemp+1, pclath, cstack
  4916 ;; Tracked objects:
  4917 ;;		On entry : 0/0
  4918 ;;		On exit  : 0/0
  4919 ;;		Unchanged: 0/0
  4920 ;; Data sizes:     COMMON   BANK0   BANK1   BANK3   BANK2
  4921 ;;      Params:         0       0       0       0       0
  4922 ;;      Locals:         0       0       0       0       0
  4923 ;;      Temps:          0       0       0       0       0
  4924 ;;      Totals:         0       0       0       0       0
  4925 ;;Total ram usage:        0 bytes
  4926 ;; Hardware stack levels used:    1
  4927 ;; Hardware stack levels required when called:    4
  4928 ;; This function calls:
  4929 ;;		_uc_send_receive_spi
  4930 ;;		_tmr_delay
  4931 ;;		_lcd_clr
  4932 ;;		_lcd_goto
  4933 ;;		_send_string
  4934 ;; This function is called by:
  4935 ;;		_Erase
  4936 ;; This function uses a non-reentrant model
  4937 ;;
  4938                           psect	text731
  4939                           	file	"PR17B.c"
  4940                           	line	783
  4941                           	global	__size_of_g_erase
  4942  004D                     	__size_of_g_erase	equ	__end_of_g_erase-_g_erase
  4943                           	
  4944  0F66                     _g_erase:	
  4945                           	opt	stack 2
  4946                           ; Regs used in _g_erase: [wreg-fsr0h+status,2+status,0+btemp+1+pclath+cstack]
  4947                           	line	784
  4948                           	
  4949  0F66                     l2968:	
  4950                           ;PR17B.c: 784: RE1 = 0;
  4951  0F66  1283               	bcf	status, 5	;RP0=0, select bank0
  4952  0F67  1303               	bcf	status, 6	;RP1=0, select bank0
  4953  0F68  1089               	bcf	(73/8),(73)&7
  4954                           	line	785
  4955                           	
  4956  0F69                     l2970:	
  4957                           ;PR17B.c: 785: uc_send_receive_spi(0b10000000);
  4958  0F69  3080               	movlw	(080h)
  4959  0F6A  120A  158A  25BB   	fcall	_uc_send_receive_spi
              120A  158A         
  4960                           	line	786
  4961                           ;PR17B.c: 786: uc_send_receive_spi(0b00000000);
  4962  0F6F  3000               	movlw	(0)
  4963  0F70  120A  158A  25BB   	fcall	_uc_send_receive_spi
              120A  158A         
  4964                           	line	787
  4965                           	
  4966  0F75                     l2972:	
  4967                           ;PR17B.c: 787: RE1 = 1;
  4968  0F75  1283               	bcf	status, 5	;RP0=0, select bank0
  4969  0F76  1303               	bcf	status, 6	;RP1=0, select bank0
  4970  0F77  1489               	bsf	(73/8),(73)&7
  4971                           	line	788
  4972                           ;PR17B.c: 788: tmr_delay(10);
  4973  0F78  300A               	movlw	low(0Ah)
  4974  0F79  00F0               	movwf	(?_tmr_delay)
  4975  0F7A  3000               	movlw	high(0Ah)
  4976  0F7B  00F1               	movwf	((?_tmr_delay))+1
  4977  0F7C  120A  158A  26A4   	fcall	_tmr_delay
              120A  158A         
  4978                           	line	790
  4979                           	
  4980  0F81                     l2974:	
  4981                           ;PR17B.c: 790: RE1 = 0;
  4982  0F81  1283               	bcf	status, 5	;RP0=0, select bank0
  4983  0F82  1303               	bcf	status, 6	;RP1=0, select bank0
  4984  0F83  1089               	bcf	(73/8),(73)&7
  4985                           	line	791
  4986                           ;PR17B.c: 791: uc_send_receive_spi(0b11000010);
  4987  0F84  30C2               	movlw	(0C2h)
  4988  0F85  120A  158A  25BB   	fcall	_uc_send_receive_spi
              120A  158A         
  4989                           	line	792
  4990                           ;PR17B.c: 792: uc_send_receive_spi(0b00000000);
  4991  0F8A  3000               	movlw	(0)
  4992  0F8B  120A  158A  25BB   	fcall	_uc_send_receive_spi
              120A  158A         
  4993                           	line	793
  4994                           	
  4995  0F90                     l2976:	
  4996                           ;PR17B.c: 793: RE1 = 1;
  4997  0F90  1283               	bcf	status, 5	;RP0=0, select bank0
  4998  0F91  1303               	bcf	status, 6	;RP1=0, select bank0
  4999  0F92  1489               	bsf	(73/8),(73)&7
  5000                           	line	794
  5001                           ;PR17B.c: 794: tmr_delay(100);
  5002  0F93  3064               	movlw	low(064h)
  5003  0F94  00F0               	movwf	(?_tmr_delay)
  5004  0F95  3000               	movlw	high(064h)
  5005  0F96  00F1               	movwf	((?_tmr_delay))+1
  5006  0F97  120A  158A  26A4   	fcall	_tmr_delay
              120A  158A         
  5007                           	line	795
  5008                           ;PR17B.c: 795: lcd_clr();
  5009  0F9C  120A  158A  25CD   	fcall	_lcd_clr
              120A  158A         
  5010                           	line	796
  5011                           ;PR17B.c: 796: lcd_goto(20);
  5012  0FA1  3014               	movlw	(014h)
  5013  0FA2  120A  158A  2628   	fcall	_lcd_goto
              120A  158A         
  5014                           	line	797
  5015                           	
  5016  0FA7                     l2978:	
  5017                           ;PR17B.c: 797: send_string("Memory Cleared");
  5018  0FA7  30B3               	movlw	low(STR_51|8000h)
  5019  0FA8  00F9               	movwf	(?_send_string)
  5020  0FA9  309E               	movlw	high(STR_51|8000h)
  5021  0FAA  00FA               	movwf	((?_send_string))+1
  5022  0FAB  120A  158A  26F6   	fcall	_send_string
              120A  158A         
  5023  0FB0  2FB1               	goto	l905
  5024                           	line	798
  5025                           ;PR17B.c: 798: while(1);
  5026                           	
  5027  0FB1                     l904:	
  5028                           	
  5029  0FB1                     l905:	
  5030  0FB1  2FB1               	goto	l905
  5031                           	
  5032  0FB2                     l906:	
  5033                           	line	800
  5034                           	
  5035  0FB2                     l907:	
  5036  0FB2  0008               	return
  5037                           	opt stack 0
  5038                           GLOBAL	__end_of_g_erase
  5039  0FB3                     	__end_of_g_erase:
  5040 ;; =============== function _g_erase ends ============
  5041                           
  5042                           	signat	_g_erase,88
  5043                           	global	_Record_s
  5044                           psect	text732,local,class=CODE,delta=2
  5045                           global __ptext732
  5046  00F5                     __ptext732:
  5047                           
  5048 ;; *************** function _Record_s *****************
  5049 ;; Defined at:
  5050 ;;		line 692 in file "PR17B.c"
  5051 ;; Parameters:    Size  Location     Type
  5052 ;;		None
  5053 ;; Auto vars:     Size  Location     Type
  5054 ;;		None
  5055 ;; Return value:  Size  Location     Type
  5056 ;;		None               void
  5057 ;; Registers used:
  5058 ;;		wreg, fsr0l, fsr0h, status,2, status,0, btemp+1, pclath, cstack
  5059 ;; Tracked objects:
  5060 ;;		On entry : 0/0
  5061 ;;		On exit  : 0/0
  5062 ;;		Unchanged: 0/0
  5063 ;; Data sizes:     COMMON   BANK0   BANK1   BANK3   BANK2
  5064 ;;      Params:         0       0       0       0       0
  5065 ;;      Locals:         0       0       0       0       0
  5066 ;;      Temps:          0       0       0       0       0
  5067 ;;      Totals:         0       0       0       0       0
  5068 ;;Total ram usage:        0 bytes
  5069 ;; Hardware stack levels used:    1
  5070 ;; Hardware stack levels required when called:    4
  5071 ;; This function calls:
  5072 ;;		_lcd_clr
  5073 ;;		_lcd_goto
  5074 ;;		_send_string
  5075 ;; This function is called by:
  5076 ;;		_Option
  5077 ;; This function uses a non-reentrant model
  5078 ;;
  5079                           psect	text732
  5080                           	file	"PR17B.c"
  5081                           	line	692
  5082                           	global	__size_of_Record_s
  5083  0071                     	__size_of_Record_s	equ	__end_of_Record_s-_Record_s
  5084                           	
  5085  00F5                     _Record_s:	
  5086                           	opt	stack 1
  5087                           ; Regs used in _Record_s: [wreg-fsr0h+status,2+status,0+btemp+1+pclath+cstack]
  5088                           	line	693
  5089                           ;PR17B.c: 693: while(1)
  5090                           	
  5091  00F5                     l853:	
  5092                           	line	695
  5093                           ;PR17B.c: 694: {
  5094                           ;PR17B.c: 695: while(RD4 == 1)continue;
  5095  00F5  28F6               	goto	l854
  5096                           	
  5097  00F6                     l855:	
  5098                           	
  5099  00F6                     l854:	
  5100  00F6  1283               	bcf	status, 5	;RP0=0, select bank0
  5101  00F7  1303               	bcf	status, 6	;RP1=0, select bank0
  5102  00F8  1A08               	btfsc	(68/8),(68)&7
  5103  00F9  28FB               	goto	u2731
  5104  00FA  28FC               	goto	u2730
  5105  00FB                     u2731:
  5106  00FB  28F6               	goto	l854
  5107  00FC                     u2730:
  5108                           	
  5109  00FC                     l856:	
  5110                           	line	696
  5111                           ;PR17B.c: 696: if(RD4 == 0)
  5112  00FC  1A08               	btfsc	(68/8),(68)&7
  5113  00FD  28FF               	goto	u2741
  5114  00FE  2900               	goto	u2740
  5115  00FF                     u2741:
  5116  00FF  292C               	goto	l861
  5117  0100                     u2740:
  5118  0100  2902               	goto	l858
  5119                           	line	699
  5120                           	
  5121  0101                     l2952:	
  5122                           ;PR17B.c: 698: {
  5123                           ;PR17B.c: 699: while(RD4 == 0) continue;
  5124  0101  2902               	goto	l858
  5125                           	
  5126  0102                     l859:	
  5127                           	
  5128  0102                     l858:	
  5129  0102  1E08               	btfss	(68/8),(68)&7
  5130  0103  2905               	goto	u2751
  5131  0104  2906               	goto	u2750
  5132  0105                     u2751:
  5133  0105  2902               	goto	l858
  5134  0106                     u2750:
  5135                           	
  5136  0106                     l860:	
  5137                           	line	700
  5138                           ;PR17B.c: 700: RA0 = 0;
  5139  0106  1005               	bcf	(40/8),(40)&7
  5140                           	line	701
  5141                           	
  5142  0107                     l2954:	
  5143                           ;PR17B.c: 701: lcd_clr();
  5144  0107  120A  158A  25CD   	fcall	_lcd_clr
              120A  118A         
  5145                           	line	702
  5146                           ;PR17B.c: 702: lcd_goto(0);
  5147  010C  3000               	movlw	(0)
  5148  010D  120A  158A  2628   	fcall	_lcd_goto
              120A  118A         
  5149                           	line	703
  5150                           	
  5151  0112                     l2956:	
  5152                           ;PR17B.c: 703: send_string("**record**");
  5153  0112  307C               	movlw	low(STR_42|8000h)
  5154  0113  00F9               	movwf	(?_send_string)
  5155  0114  309F               	movlw	high(STR_42|8000h)
  5156  0115  00FA               	movwf	((?_send_string))+1
  5157  0116  120A  158A  26F6   	fcall	_send_string
              120A  118A         
  5158                           	line	704
  5159                           	
  5160  011B                     l2958:	
  5161                           ;PR17B.c: 704: lcd_goto(20);
  5162  011B  3014               	movlw	(014h)
  5163  011C  120A  158A  2628   	fcall	_lcd_goto
              120A  118A         
  5164                           	line	705
  5165                           ;PR17B.c: 705: send_string("select to stop");
  5166  0121  30C2               	movlw	low(STR_43|8000h)
  5167  0122  00F9               	movwf	(?_send_string)
  5168  0123  309E               	movlw	high(STR_43|8000h)
  5169  0124  00FA               	movwf	((?_send_string))+1
  5170  0125  120A  158A  26F6   	fcall	_send_string
              120A  118A         
  5171  012A  292C               	goto	l861
  5172                           	line	706
  5173                           	
  5174  012B                     l857:	
  5175                           	line	707
  5176                           ;PR17B.c: 706: }
  5177                           ;PR17B.c: 707: while(RD5 ==1)continue;
  5178  012B  292C               	goto	l861
  5179                           	
  5180  012C                     l862:	
  5181                           	
  5182  012C                     l861:	
  5183  012C  1283               	bcf	status, 5	;RP0=0, select bank0
  5184  012D  1303               	bcf	status, 6	;RP1=0, select bank0
  5185  012E  1A88               	btfsc	(69/8),(69)&7
  5186  012F  2931               	goto	u2761
  5187  0130  2932               	goto	u2760
  5188  0131                     u2761:
  5189  0131  292C               	goto	l861
  5190  0132                     u2760:
  5191                           	
  5192  0132                     l863:	
  5193                           	line	708
  5194                           ;PR17B.c: 708: if(RD5 == 0)
  5195  0132  1A88               	btfsc	(69/8),(69)&7
  5196  0133  2935               	goto	u2771
  5197  0134  2936               	goto	u2770
  5198  0135                     u2771:
  5199  0135  28F5               	goto	l853
  5200  0136                     u2770:
  5201  0136  2938               	goto	l865
  5202                           	line	710
  5203                           	
  5204  0137                     l2960:	
  5205                           ;PR17B.c: 709: {
  5206                           ;PR17B.c: 710: while(RD5 == 0)continue;
  5207  0137  2938               	goto	l865
  5208                           	
  5209  0138                     l866:	
  5210                           	
  5211  0138                     l865:	
  5212  0138  1E88               	btfss	(69/8),(69)&7
  5213  0139  293B               	goto	u2781
  5214  013A  293C               	goto	u2780
  5215  013B                     u2781:
  5216  013B  2938               	goto	l865
  5217  013C                     u2780:
  5218                           	
  5219  013C                     l867:	
  5220                           	line	711
  5221                           ;PR17B.c: 711: RA0 = 1;
  5222  013C  1405               	bsf	(40/8),(40)&7
  5223                           	line	712
  5224                           	
  5225  013D                     l2962:	
  5226                           ;PR17B.c: 712: lcd_clr();
  5227  013D  120A  158A  25CD   	fcall	_lcd_clr
              120A  118A         
  5228                           	line	713
  5229                           ;PR17B.c: 713: lcd_goto(0);
  5230  0142  3000               	movlw	(0)
  5231  0143  120A  158A  2628   	fcall	_lcd_goto
              120A  118A         
  5232                           	line	714
  5233                           	
  5234  0148                     l2964:	
  5235                           ;PR17B.c: 714: send_string("**stop ");
  5236  0148  30AE               	movlw	low(STR_44|8000h)
  5237  0149  00F9               	movwf	(?_send_string)
  5238  014A  309F               	movlw	high(STR_44|8000h)
  5239  014B  00FA               	movwf	((?_send_string))+1
  5240  014C  120A  158A  26F6   	fcall	_send_string
              120A  118A         
  5241                           	line	715
  5242                           	
  5243  0151                     l2966:	
  5244                           ;PR17B.c: 715: lcd_goto(20);
  5245  0151  3014               	movlw	(014h)
  5246  0152  120A  158A  2628   	fcall	_lcd_goto
              120A  118A         
  5247                           	line	716
  5248                           ;PR17B.c: 716: send_string("recording**");
  5249  0157  3042               	movlw	low(STR_45|8000h)
  5250  0158  00F9               	movwf	(?_send_string)
  5251  0159  309F               	movlw	high(STR_45|8000h)
  5252  015A  00FA               	movwf	((?_send_string))+1
  5253  015B  120A  158A  26F6   	fcall	_send_string
              120A  118A         
  5254  0160  2961               	goto	l869
  5255                           	line	717
  5256                           ;PR17B.c: 717: while(1){}
  5257                           	
  5258  0161                     l868:	
  5259                           	
  5260  0161                     l869:	
  5261  0161  2961               	goto	l869
  5262                           	
  5263  0162                     l870:	
  5264  0162  28F5               	goto	l853
  5265                           	line	718
  5266                           	
  5267  0163                     l864:	
  5268  0163  28F5               	goto	l853
  5269                           	line	719
  5270                           	
  5271  0164                     l871:	
  5272                           	line	693
  5273  0164  28F5               	goto	l853
  5274                           	
  5275  0165                     l872:	
  5276                           	line	720
  5277                           	
  5278  0165                     l873:	
  5279  0165  0008               	return
  5280                           	opt stack 0
  5281                           GLOBAL	__end_of_Record_s
  5282  0166                     	__end_of_Record_s:
  5283 ;; =============== function _Record_s ends ============
  5284                           
  5285                           	signat	_Record_s,88
  5286                           	global	_message1r
  5287                           psect	text733,local,class=CODE,delta=2
  5288                           global __ptext733
  5289  01DA                     __ptext733:
  5290                           
  5291 ;; *************** function _message1r *****************
  5292 ;; Defined at:
  5293 ;;		line 529 in file "PR17B.c"
  5294 ;; Parameters:    Size  Location     Type
  5295 ;;		None
  5296 ;; Auto vars:     Size  Location     Type
  5297 ;;		None
  5298 ;; Return value:  Size  Location     Type
  5299 ;;		None               void
  5300 ;; Registers used:
  5301 ;;		wreg, fsr0l, fsr0h, status,2, status,0, btemp+1, pclath, cstack
  5302 ;; Tracked objects:
  5303 ;;		On entry : 0/0
  5304 ;;		On exit  : 0/0
  5305 ;;		Unchanged: 0/0
  5306 ;; Data sizes:     COMMON   BANK0   BANK1   BANK3   BANK2
  5307 ;;      Params:         0       0       0       0       0
  5308 ;;      Locals:         0       0       0       0       0
  5309 ;;      Temps:          0       0       0       0       0
  5310 ;;      Totals:         0       0       0       0       0
  5311 ;;Total ram usage:        0 bytes
  5312 ;; Hardware stack levels used:    1
  5313 ;; Hardware stack levels required when called:    4
  5314 ;; This function calls:
  5315 ;;		_uc_send_receive_spi
  5316 ;;		_lcd_clr
  5317 ;;		_lcd_goto
  5318 ;;		_send_string
  5319 ;;		_tmr_delay
  5320 ;; This function is called by:
  5321 ;;		_location
  5322 ;; This function uses a non-reentrant model
  5323 ;;
  5324                           psect	text733
  5325                           	file	"PR17B.c"
  5326                           	line	529
  5327                           	global	__size_of_message1r
  5328  0074                     	__size_of_message1r	equ	__end_of_message1r-_message1r
  5329                           	
  5330  01DA                     _message1r:	
  5331 ;; hardware stack exceeded
  5332                           	opt	stack 0
  5333                           ; Regs used in _message1r: [wreg-fsr0h+status,2+status,0+btemp+1+pclath+cstack]
  5334                           	line	530
  5335                           	
  5336  01DA                     l2932:	
  5337                           ;PR17B.c: 530: RE1 = 0;
  5338  01DA  1283               	bcf	status, 5	;RP0=0, select bank0
  5339  01DB  1303               	bcf	status, 6	;RP1=0, select bank0
  5340  01DC  1089               	bcf	(73/8),(73)&7
  5341                           	line	531
  5342                           	
  5343  01DD                     l2934:	
  5344                           ;PR17B.c: 531: uc_send_receive_spi(0b10000001);
  5345  01DD  3081               	movlw	(081h)
  5346  01DE  120A  158A  25BB   	fcall	_uc_send_receive_spi
              120A  118A         
  5347                           	line	532
  5348                           ;PR17B.c: 532: uc_send_receive_spi(0b00000000);
  5349  01E3  3000               	movlw	(0)
  5350  01E4  120A  158A  25BB   	fcall	_uc_send_receive_spi
              120A  118A         
  5351                           	line	533
  5352                           ;PR17B.c: 533: uc_send_receive_spi(0b00001000);
  5353  01E9  3008               	movlw	(08h)
  5354  01EA  120A  158A  25BB   	fcall	_uc_send_receive_spi
              120A  118A         
  5355                           	line	534
  5356                           ;PR17B.c: 534: uc_send_receive_spi(0b00000000);
  5357  01EF  3000               	movlw	(0)
  5358  01F0  120A  158A  25BB   	fcall	_uc_send_receive_spi
              120A  118A         
  5359                           	line	535
  5360                           ;PR17B.c: 535: uc_send_receive_spi(0b01101110);
  5361  01F5  306E               	movlw	(06Eh)
  5362  01F6  120A  158A  25BB   	fcall	_uc_send_receive_spi
              120A  118A         
  5363                           	line	536
  5364                           ;PR17B.c: 536: uc_send_receive_spi(0b10000000);
  5365  01FB  3080               	movlw	(080h)
  5366  01FC  120A  158A  25BB   	fcall	_uc_send_receive_spi
              120A  118A         
  5367                           	line	537
  5368                           ;PR17B.c: 537: uc_send_receive_spi(0b00000000);
  5369  0201  3000               	movlw	(0)
  5370  0202  120A  158A  25BB   	fcall	_uc_send_receive_spi
              120A  118A         
  5371                           	line	538
  5372                           	
  5373  0207                     l2936:	
  5374                           ;PR17B.c: 538: RE1 = 1;
  5375  0207  1283               	bcf	status, 5	;RP0=0, select bank0
  5376  0208  1303               	bcf	status, 6	;RP1=0, select bank0
  5377  0209  1489               	bsf	(73/8),(73)&7
  5378                           	line	539
  5379                           ;PR17B.c: 539: lcd_clr();
  5380  020A  120A  158A  25CD   	fcall	_lcd_clr
              120A  118A         
  5381                           	line	540
  5382                           ;PR17B.c: 540: lcd_goto(0);
  5383  020F  3000               	movlw	(0)
  5384  0210  120A  158A  2628   	fcall	_lcd_goto
              120A  118A         
  5385                           	line	541
  5386                           	
  5387  0215                     l2938:	
  5388                           ;PR17B.c: 541: send_string("**recording the");
  5389  0215  3083               	movlw	low(STR_30|8000h)
  5390  0216  00F9               	movwf	(?_send_string)
  5391  0217  309E               	movlw	high(STR_30|8000h)
  5392  0218  00FA               	movwf	((?_send_string))+1
  5393  0219  120A  158A  26F6   	fcall	_send_string
              120A  118A         
  5394                           	line	542
  5395                           	
  5396  021E                     l2940:	
  5397                           ;PR17B.c: 542: lcd_goto(20);
  5398  021E  3014               	movlw	(014h)
  5399  021F  120A  158A  2628   	fcall	_lcd_goto
              120A  118A         
  5400                           	line	543
  5401                           ;PR17B.c: 543: send_string("first message**");
  5402  0224  3073               	movlw	low(STR_31|8000h)
  5403  0225  00F9               	movwf	(?_send_string)
  5404  0226  309E               	movlw	high(STR_31|8000h)
  5405  0227  00FA               	movwf	((?_send_string))+1
  5406  0228  120A  158A  26F6   	fcall	_send_string
              120A  118A         
  5407                           	line	544
  5408                           	
  5409  022D                     l2942:	
  5410                           ;PR17B.c: 544: tmr_delay(4600);
  5411  022D  30F8               	movlw	low(011F8h)
  5412  022E  00F0               	movwf	(?_tmr_delay)
  5413  022F  3011               	movlw	high(011F8h)
  5414  0230  00F1               	movwf	((?_tmr_delay))+1
  5415  0231  120A  158A  26A4   	fcall	_tmr_delay
              120A  118A         
  5416                           	line	545
  5417                           	
  5418  0236                     l2944:	
  5419                           ;PR17B.c: 545: lcd_clr();
  5420  0236  120A  158A  25CD   	fcall	_lcd_clr
              120A  118A         
  5421                           	line	546
  5422                           	
  5423  023B                     l2946:	
  5424                           ;PR17B.c: 546: lcd_goto(0);
  5425  023B  3000               	movlw	(0)
  5426  023C  120A  158A  2628   	fcall	_lcd_goto
              120A  118A         
  5427                           	line	547
  5428                           	
  5429  0241                     l2948:	
  5430                           ;PR17B.c: 547: send_string("***halt***");
  5431  0241  3071               	movlw	low(STR_32|8000h)
  5432  0242  00F9               	movwf	(?_send_string)
  5433  0243  309F               	movlw	high(STR_32|8000h)
  5434  0244  00FA               	movwf	((?_send_string))+1
  5435  0245  120A  158A  26F6   	fcall	_send_string
              120A  118A         
  5436                           	line	548
  5437                           	
  5438  024A                     l2950:	
  5439                           ;PR17B.c: 548: RD3 =1;
  5440  024A  1283               	bcf	status, 5	;RP0=0, select bank0
  5441  024B  1303               	bcf	status, 6	;RP1=0, select bank0
  5442  024C  1588               	bsf	(67/8),(67)&7
  5443                           	line	549
  5444                           	
  5445  024D                     l813:	
  5446  024D  0008               	return
  5447                           	opt stack 0
  5448                           GLOBAL	__end_of_message1r
  5449  024E                     	__end_of_message1r:
  5450 ;; =============== function _message1r ends ============
  5451                           
  5452                           	signat	_message1r,88
  5453                           	global	_message2r
  5454                           psect	text734,local,class=CODE,delta=2
  5455                           global __ptext734
  5456  0166                     __ptext734:
  5457                           
  5458 ;; *************** function _message2r *****************
  5459 ;; Defined at:
  5460 ;;		line 552 in file "PR17B.c"
  5461 ;; Parameters:    Size  Location     Type
  5462 ;;		None
  5463 ;; Auto vars:     Size  Location     Type
  5464 ;;		None
  5465 ;; Return value:  Size  Location     Type
  5466 ;;		None               void
  5467 ;; Registers used:
  5468 ;;		wreg, fsr0l, fsr0h, status,2, status,0, btemp+1, pclath, cstack
  5469 ;; Tracked objects:
  5470 ;;		On entry : 0/0
  5471 ;;		On exit  : 0/0
  5472 ;;		Unchanged: 0/0
  5473 ;; Data sizes:     COMMON   BANK0   BANK1   BANK3   BANK2
  5474 ;;      Params:         0       0       0       0       0
  5475 ;;      Locals:         0       0       0       0       0
  5476 ;;      Temps:          0       0       0       0       0
  5477 ;;      Totals:         0       0       0       0       0
  5478 ;;Total ram usage:        0 bytes
  5479 ;; Hardware stack levels used:    1
  5480 ;; Hardware stack levels required when called:    4
  5481 ;; This function calls:
  5482 ;;		_uc_send_receive_spi
  5483 ;;		_lcd_clr
  5484 ;;		_lcd_goto
  5485 ;;		_send_string
  5486 ;;		_tmr_delay
  5487 ;; This function is called by:
  5488 ;;		_location
  5489 ;; This function uses a non-reentrant model
  5490 ;;
  5491                           psect	text734
  5492                           	file	"PR17B.c"
  5493                           	line	552
  5494                           	global	__size_of_message2r
  5495  0074                     	__size_of_message2r	equ	__end_of_message2r-_message2r
  5496                           	
  5497  0166                     _message2r:	
  5498 ;; hardware stack exceeded
  5499                           	opt	stack 0
  5500                           ; Regs used in _message2r: [wreg-fsr0h+status,2+status,0+btemp+1+pclath+cstack]
  5501                           	line	553
  5502                           	
  5503  0166                     l2912:	
  5504                           ;PR17B.c: 553: RE1 = 0;
  5505  0166  1283               	bcf	status, 5	;RP0=0, select bank0
  5506  0167  1303               	bcf	status, 6	;RP1=0, select bank0
  5507  0168  1089               	bcf	(73/8),(73)&7
  5508                           	line	554
  5509                           	
  5510  0169                     l2914:	
  5511                           ;PR17B.c: 554: uc_send_receive_spi(0b10000001);
  5512  0169  3081               	movlw	(081h)
  5513  016A  120A  158A  25BB   	fcall	_uc_send_receive_spi
              120A  118A         
  5514                           	line	555
  5515                           ;PR17B.c: 555: uc_send_receive_spi(0b00000000);
  5516  016F  3000               	movlw	(0)
  5517  0170  120A  158A  25BB   	fcall	_uc_send_receive_spi
              120A  118A         
  5518                           	line	556
  5519                           ;PR17B.c: 556: uc_send_receive_spi(0b11101110);
  5520  0175  30EE               	movlw	(0EEh)
  5521  0176  120A  158A  25BB   	fcall	_uc_send_receive_spi
              120A  118A         
  5522                           	line	557
  5523                           ;PR17B.c: 557: uc_send_receive_spi(0b10000000);
  5524  017B  3080               	movlw	(080h)
  5525  017C  120A  158A  25BB   	fcall	_uc_send_receive_spi
              120A  118A         
  5526                           	line	558
  5527                           ;PR17B.c: 558: uc_send_receive_spi(0b10111011);
  5528  0181  30BB               	movlw	(0BBh)
  5529  0182  120A  158A  25BB   	fcall	_uc_send_receive_spi
              120A  118A         
  5530                           	line	559
  5531                           ;PR17B.c: 559: uc_send_receive_spi(0b01000000);
  5532  0187  3040               	movlw	(040h)
  5533  0188  120A  158A  25BB   	fcall	_uc_send_receive_spi
              120A  118A         
  5534                           	line	560
  5535                           ;PR17B.c: 560: uc_send_receive_spi(0b00000000);
  5536  018D  3000               	movlw	(0)
  5537  018E  120A  158A  25BB   	fcall	_uc_send_receive_spi
              120A  118A         
  5538                           	line	561
  5539                           	
  5540  0193                     l2916:	
  5541                           ;PR17B.c: 561: RE1 = 1;
  5542  0193  1283               	bcf	status, 5	;RP0=0, select bank0
  5543  0194  1303               	bcf	status, 6	;RP1=0, select bank0
  5544  0195  1489               	bsf	(73/8),(73)&7
  5545                           	line	562
  5546                           ;PR17B.c: 562: lcd_clr();
  5547  0196  120A  158A  25CD   	fcall	_lcd_clr
              120A  118A         
  5548                           	line	563
  5549                           ;PR17B.c: 563: lcd_goto(0);
  5550  019B  3000               	movlw	(0)
  5551  019C  120A  158A  2628   	fcall	_lcd_goto
              120A  118A         
  5552                           	line	564
  5553                           	
  5554  01A1                     l2918:	
  5555                           ;PR17B.c: 564: send_string("**recording the");
  5556  01A1  3083               	movlw	low(STR_33|8000h)
  5557  01A2  00F9               	movwf	(?_send_string)
  5558  01A3  309E               	movlw	high(STR_33|8000h)
  5559  01A4  00FA               	movwf	((?_send_string))+1
  5560  01A5  120A  158A  26F6   	fcall	_send_string
              120A  118A         
  5561                           	line	565
  5562                           	
  5563  01AA                     l2920:	
  5564                           ;PR17B.c: 565: lcd_goto(20);
  5565  01AA  3014               	movlw	(014h)
  5566  01AB  120A  158A  2628   	fcall	_lcd_goto
              120A  118A         
  5567                           	line	566
  5568                           ;PR17B.c: 566: send_string("second message**");
  5569  01B0  3032               	movlw	low(STR_34|8000h)
  5570  01B1  00F9               	movwf	(?_send_string)
  5571  01B2  309E               	movlw	high(STR_34|8000h)
  5572  01B3  00FA               	movwf	((?_send_string))+1
  5573  01B4  120A  158A  26F6   	fcall	_send_string
              120A  118A         
  5574                           	line	567
  5575                           	
  5576  01B9                     l2922:	
  5577                           ;PR17B.c: 567: tmr_delay(4600);
  5578  01B9  30F8               	movlw	low(011F8h)
  5579  01BA  00F0               	movwf	(?_tmr_delay)
  5580  01BB  3011               	movlw	high(011F8h)
  5581  01BC  00F1               	movwf	((?_tmr_delay))+1
  5582  01BD  120A  158A  26A4   	fcall	_tmr_delay
              120A  118A         
  5583                           	line	568
  5584                           	
  5585  01C2                     l2924:	
  5586                           ;PR17B.c: 568: lcd_clr();
  5587  01C2  120A  158A  25CD   	fcall	_lcd_clr
              120A  118A         
  5588                           	line	569
  5589                           	
  5590  01C7                     l2926:	
  5591                           ;PR17B.c: 569: lcd_goto(0);
  5592  01C7  3000               	movlw	(0)
  5593  01C8  120A  158A  2628   	fcall	_lcd_goto
              120A  118A         
  5594                           	line	570
  5595                           	
  5596  01CD                     l2928:	
  5597                           ;PR17B.c: 570: send_string("***halt***");
  5598  01CD  3071               	movlw	low(STR_35|8000h)
  5599  01CE  00F9               	movwf	(?_send_string)
  5600  01CF  309F               	movlw	high(STR_35|8000h)
  5601  01D0  00FA               	movwf	((?_send_string))+1
  5602  01D1  120A  158A  26F6   	fcall	_send_string
              120A  118A         
  5603                           	line	571
  5604                           	
  5605  01D6                     l2930:	
  5606                           ;PR17B.c: 571: RD3 = 1;
  5607  01D6  1283               	bcf	status, 5	;RP0=0, select bank0
  5608  01D7  1303               	bcf	status, 6	;RP1=0, select bank0
  5609  01D8  1588               	bsf	(67/8),(67)&7
  5610                           	line	572
  5611                           	
  5612  01D9                     l816:	
  5613  01D9  0008               	return
  5614                           	opt stack 0
  5615                           GLOBAL	__end_of_message2r
  5616  01DA                     	__end_of_message2r:
  5617 ;; =============== function _message2r ends ============
  5618                           
  5619                           	signat	_message2r,88
  5620                           	global	_message1p
  5621                           psect	text735,local,class=CODE,delta=2
  5622                           global __ptext735
  5623  0084                     __ptext735:
  5624                           
  5625 ;; *************** function _message1p *****************
  5626 ;; Defined at:
  5627 ;;		line 445 in file "PR17B.c"
  5628 ;; Parameters:    Size  Location     Type
  5629 ;;		None
  5630 ;; Auto vars:     Size  Location     Type
  5631 ;;		None
  5632 ;; Return value:  Size  Location     Type
  5633 ;;		None               void
  5634 ;; Registers used:
  5635 ;;		wreg, fsr0l, fsr0h, status,2, status,0, btemp+1, pclath, cstack
  5636 ;; Tracked objects:
  5637 ;;		On entry : 0/0
  5638 ;;		On exit  : 0/0
  5639 ;;		Unchanged: 0/0
  5640 ;; Data sizes:     COMMON   BANK0   BANK1   BANK3   BANK2
  5641 ;;      Params:         0       0       0       0       0
  5642 ;;      Locals:         0       0       0       0       0
  5643 ;;      Temps:          0       0       0       0       0
  5644 ;;      Totals:         0       0       0       0       0
  5645 ;;Total ram usage:        0 bytes
  5646 ;; Hardware stack levels used:    1
  5647 ;; Hardware stack levels required when called:    4
  5648 ;; This function calls:
  5649 ;;		_uc_send_receive_spi
  5650 ;;		_lcd_clr
  5651 ;;		_lcd_goto
  5652 ;;		_send_string
  5653 ;;		_tmr_delay
  5654 ;; This function is called by:
  5655 ;;		_Play
  5656 ;; This function uses a non-reentrant model
  5657 ;;
  5658                           psect	text735
  5659                           	file	"PR17B.c"
  5660                           	line	445
  5661                           	global	__size_of_message1p
  5662  0071                     	__size_of_message1p	equ	__end_of_message1p-_message1p
  5663                           	
  5664  0084                     _message1p:	
  5665                           	opt	stack 1
  5666                           ; Regs used in _message1p: [wreg-fsr0h+status,2+status,0+btemp+1+pclath+cstack]
  5667                           	line	446
  5668                           	
  5669  0084                     l2894:	
  5670                           ;PR17B.c: 446: RE1 = 0;
  5671  0084  1283               	bcf	status, 5	;RP0=0, select bank0
  5672  0085  1303               	bcf	status, 6	;RP1=0, select bank0
  5673  0086  1089               	bcf	(73/8),(73)&7
  5674                           	line	447
  5675                           	
  5676  0087                     l2896:	
  5677                           ;PR17B.c: 447: uc_send_receive_spi(0b00000001);
  5678  0087  3001               	movlw	(01h)
  5679  0088  120A  158A  25BB   	fcall	_uc_send_receive_spi
              120A  118A         
  5680                           	line	448
  5681                           ;PR17B.c: 448: uc_send_receive_spi(0b00000000);
  5682  008D  3000               	movlw	(0)
  5683  008E  120A  158A  25BB   	fcall	_uc_send_receive_spi
              120A  118A         
  5684                           	line	449
  5685                           ;PR17B.c: 449: uc_send_receive_spi(0b00001000);
  5686  0093  3008               	movlw	(08h)
  5687  0094  120A  158A  25BB   	fcall	_uc_send_receive_spi
              120A  118A         
  5688                           	line	450
  5689                           ;PR17B.c: 450: uc_send_receive_spi(0b00000000);
  5690  0099  3000               	movlw	(0)
  5691  009A  120A  158A  25BB   	fcall	_uc_send_receive_spi
              120A  118A         
  5692                           	line	451
  5693                           ;PR17B.c: 451: uc_send_receive_spi(0b01101110);
  5694  009F  306E               	movlw	(06Eh)
  5695  00A0  120A  158A  25BB   	fcall	_uc_send_receive_spi
              120A  118A         
  5696                           	line	452
  5697                           ;PR17B.c: 452: uc_send_receive_spi(0b10000000);
  5698  00A5  3080               	movlw	(080h)
  5699  00A6  120A  158A  25BB   	fcall	_uc_send_receive_spi
              120A  118A         
  5700                           	line	453
  5701                           ;PR17B.c: 453: uc_send_receive_spi(0b00000000);
  5702  00AB  3000               	movlw	(0)
  5703  00AC  120A  158A  25BB   	fcall	_uc_send_receive_spi
              120A  118A         
  5704                           	line	454
  5705                           	
  5706  00B1                     l2898:	
  5707                           ;PR17B.c: 454: RE1 = 1;
  5708  00B1  1283               	bcf	status, 5	;RP0=0, select bank0
  5709  00B2  1303               	bcf	status, 6	;RP1=0, select bank0
  5710  00B3  1489               	bsf	(73/8),(73)&7
  5711                           	line	455
  5712                           ;PR17B.c: 455: lcd_clr();
  5713  00B4  120A  158A  25CD   	fcall	_lcd_clr
              120A  118A         
  5714                           	line	456
  5715                           ;PR17B.c: 456: lcd_goto(0);
  5716  00B9  3000               	movlw	(0)
  5717  00BA  120A  158A  2628   	fcall	_lcd_goto
              120A  118A         
  5718                           	line	457
  5719                           	
  5720  00BF                     l2900:	
  5721                           ;PR17B.c: 457: send_string("**playing the");
  5722  00BF  30D1               	movlw	low(STR_20|8000h)
  5723  00C0  00F9               	movwf	(?_send_string)
  5724  00C1  309E               	movlw	high(STR_20|8000h)
  5725  00C2  00FA               	movwf	((?_send_string))+1
  5726  00C3  120A  158A  26F6   	fcall	_send_string
              120A  118A         
  5727                           	line	458
  5728                           	
  5729  00C8                     l2902:	
  5730                           ;PR17B.c: 458: lcd_goto(20);
  5731  00C8  3014               	movlw	(014h)
  5732  00C9  120A  158A  2628   	fcall	_lcd_goto
              120A  118A         
  5733                           	line	459
  5734                           ;PR17B.c: 459: send_string("first message**");
  5735  00CE  3073               	movlw	low(STR_21|8000h)
  5736  00CF  00F9               	movwf	(?_send_string)
  5737  00D0  309E               	movlw	high(STR_21|8000h)
  5738  00D1  00FA               	movwf	((?_send_string))+1
  5739  00D2  120A  158A  26F6   	fcall	_send_string
              120A  118A         
  5740                           	line	460
  5741                           	
  5742  00D7                     l2904:	
  5743                           ;PR17B.c: 460: tmr_delay(4600);
  5744  00D7  30F8               	movlw	low(011F8h)
  5745  00D8  00F0               	movwf	(?_tmr_delay)
  5746  00D9  3011               	movlw	high(011F8h)
  5747  00DA  00F1               	movwf	((?_tmr_delay))+1
  5748  00DB  120A  158A  26A4   	fcall	_tmr_delay
              120A  118A         
  5749                           	line	461
  5750                           	
  5751  00E0                     l2906:	
  5752                           ;PR17B.c: 461: lcd_clr();
  5753  00E0  120A  158A  25CD   	fcall	_lcd_clr
              120A  118A         
  5754                           	line	462
  5755                           	
  5756  00E5                     l2908:	
  5757                           ;PR17B.c: 462: lcd_goto(0);
  5758  00E5  3000               	movlw	(0)
  5759  00E6  120A  158A  2628   	fcall	_lcd_goto
              120A  118A         
  5760                           	line	463
  5761                           	
  5762  00EB                     l2910:	
  5763                           ;PR17B.c: 463: send_string("***halt***");
  5764  00EB  3071               	movlw	low(STR_22|8000h)
  5765  00EC  00F9               	movwf	(?_send_string)
  5766  00ED  309F               	movlw	high(STR_22|8000h)
  5767  00EE  00FA               	movwf	((?_send_string))+1
  5768  00EF  120A  158A  26F6   	fcall	_send_string
              120A  118A         
  5769                           	line	464
  5770                           	
  5771  00F4                     l785:	
  5772  00F4  0008               	return
  5773                           	opt stack 0
  5774                           GLOBAL	__end_of_message1p
  5775  00F5                     	__end_of_message1p:
  5776 ;; =============== function _message1p ends ============
  5777                           
  5778                           	signat	_message1p,88
  5779                           	global	_message2p
  5780                           psect	text736,local,class=CODE,delta=2
  5781                           global __ptext736
  5782  0013                     __ptext736:
  5783                           
  5784 ;; *************** function _message2p *****************
  5785 ;; Defined at:
  5786 ;;		line 467 in file "PR17B.c"
  5787 ;; Parameters:    Size  Location     Type
  5788 ;;		None
  5789 ;; Auto vars:     Size  Location     Type
  5790 ;;		None
  5791 ;; Return value:  Size  Location     Type
  5792 ;;		None               void
  5793 ;; Registers used:
  5794 ;;		wreg, fsr0l, fsr0h, status,2, status,0, btemp+1, pclath, cstack
  5795 ;; Tracked objects:
  5796 ;;		On entry : 0/0
  5797 ;;		On exit  : 0/0
  5798 ;;		Unchanged: 0/0
  5799 ;; Data sizes:     COMMON   BANK0   BANK1   BANK3   BANK2
  5800 ;;      Params:         0       0       0       0       0
  5801 ;;      Locals:         0       0       0       0       0
  5802 ;;      Temps:          0       0       0       0       0
  5803 ;;      Totals:         0       0       0       0       0
  5804 ;;Total ram usage:        0 bytes
  5805 ;; Hardware stack levels used:    1
  5806 ;; Hardware stack levels required when called:    4
  5807 ;; This function calls:
  5808 ;;		_uc_send_receive_spi
  5809 ;;		_lcd_clr
  5810 ;;		_lcd_goto
  5811 ;;		_send_string
  5812 ;;		_tmr_delay
  5813 ;; This function is called by:
  5814 ;;		_Play
  5815 ;; This function uses a non-reentrant model
  5816 ;;
  5817                           psect	text736
  5818                           	file	"PR17B.c"
  5819                           	line	467
  5820                           	global	__size_of_message2p
  5821  0071                     	__size_of_message2p	equ	__end_of_message2p-_message2p
  5822                           	
  5823  0013                     _message2p:	
  5824                           	opt	stack 1
  5825                           ; Regs used in _message2p: [wreg-fsr0h+status,2+status,0+btemp+1+pclath+cstack]
  5826                           	line	468
  5827                           	
  5828  0013                     l2876:	
  5829                           ;PR17B.c: 468: RE1 = 0;
  5830  0013  1283               	bcf	status, 5	;RP0=0, select bank0
  5831  0014  1303               	bcf	status, 6	;RP1=0, select bank0
  5832  0015  1089               	bcf	(73/8),(73)&7
  5833                           	line	469
  5834                           	
  5835  0016                     l2878:	
  5836                           ;PR17B.c: 469: uc_send_receive_spi(0b00000001);
  5837  0016  3001               	movlw	(01h)
  5838  0017  120A  158A  25BB   	fcall	_uc_send_receive_spi
              120A  118A         
  5839                           	line	470
  5840                           ;PR17B.c: 470: uc_send_receive_spi(0b00000000);
  5841  001C  3000               	movlw	(0)
  5842  001D  120A  158A  25BB   	fcall	_uc_send_receive_spi
              120A  118A         
  5843                           	line	471
  5844                           ;PR17B.c: 471: uc_send_receive_spi(0b11101110);
  5845  0022  30EE               	movlw	(0EEh)
  5846  0023  120A  158A  25BB   	fcall	_uc_send_receive_spi
              120A  118A         
  5847                           	line	472
  5848                           ;PR17B.c: 472: uc_send_receive_spi(0b10000000);
  5849  0028  3080               	movlw	(080h)
  5850  0029  120A  158A  25BB   	fcall	_uc_send_receive_spi
              120A  118A         
  5851                           	line	473
  5852                           ;PR17B.c: 473: uc_send_receive_spi(0b10111011);
  5853  002E  30BB               	movlw	(0BBh)
  5854  002F  120A  158A  25BB   	fcall	_uc_send_receive_spi
              120A  118A         
  5855                           	line	474
  5856                           ;PR17B.c: 474: uc_send_receive_spi(0b01000000);
  5857  0034  3040               	movlw	(040h)
  5858  0035  120A  158A  25BB   	fcall	_uc_send_receive_spi
              120A  118A         
  5859                           	line	475
  5860                           ;PR17B.c: 475: uc_send_receive_spi(0b00000000);
  5861  003A  3000               	movlw	(0)
  5862  003B  120A  158A  25BB   	fcall	_uc_send_receive_spi
              120A  118A         
  5863                           	line	476
  5864                           	
  5865  0040                     l2880:	
  5866                           ;PR17B.c: 476: RE1 = 1;
  5867  0040  1283               	bcf	status, 5	;RP0=0, select bank0
  5868  0041  1303               	bcf	status, 6	;RP1=0, select bank0
  5869  0042  1489               	bsf	(73/8),(73)&7
  5870                           	line	477
  5871                           ;PR17B.c: 477: lcd_clr();
  5872  0043  120A  158A  25CD   	fcall	_lcd_clr
              120A  118A         
  5873                           	line	478
  5874                           ;PR17B.c: 478: lcd_goto(0);
  5875  0048  3000               	movlw	(0)
  5876  0049  120A  158A  2628   	fcall	_lcd_goto
              120A  118A         
  5877                           	line	479
  5878                           	
  5879  004E                     l2882:	
  5880                           ;PR17B.c: 479: send_string("**playing the");
  5881  004E  30D1               	movlw	low(STR_23|8000h)
  5882  004F  00F9               	movwf	(?_send_string)
  5883  0050  309E               	movlw	high(STR_23|8000h)
  5884  0051  00FA               	movwf	((?_send_string))+1
  5885  0052  120A  158A  26F6   	fcall	_send_string
              120A  118A         
  5886                           	line	480
  5887                           	
  5888  0057                     l2884:	
  5889                           ;PR17B.c: 480: lcd_goto(20);
  5890  0057  3014               	movlw	(014h)
  5891  0058  120A  158A  2628   	fcall	_lcd_goto
              120A  118A         
  5892                           	line	481
  5893                           ;PR17B.c: 481: send_string("second message**");
  5894  005D  3032               	movlw	low(STR_24|8000h)
  5895  005E  00F9               	movwf	(?_send_string)
  5896  005F  309E               	movlw	high(STR_24|8000h)
  5897  0060  00FA               	movwf	((?_send_string))+1
  5898  0061  120A  158A  26F6   	fcall	_send_string
              120A  118A         
  5899                           	line	482
  5900                           	
  5901  0066                     l2886:	
  5902                           ;PR17B.c: 482: tmr_delay(4600);
  5903  0066  30F8               	movlw	low(011F8h)
  5904  0067  00F0               	movwf	(?_tmr_delay)
  5905  0068  3011               	movlw	high(011F8h)
  5906  0069  00F1               	movwf	((?_tmr_delay))+1
  5907  006A  120A  158A  26A4   	fcall	_tmr_delay
              120A  118A         
  5908                           	line	483
  5909                           	
  5910  006F                     l2888:	
  5911                           ;PR17B.c: 483: lcd_clr();
  5912  006F  120A  158A  25CD   	fcall	_lcd_clr
              120A  118A         
  5913                           	line	484
  5914                           	
  5915  0074                     l2890:	
  5916                           ;PR17B.c: 484: lcd_goto(0);
  5917  0074  3000               	movlw	(0)
  5918  0075  120A  158A  2628   	fcall	_lcd_goto
              120A  118A         
  5919                           	line	485
  5920                           	
  5921  007A                     l2892:	
  5922                           ;PR17B.c: 485: send_string("***halt***");
  5923  007A  3071               	movlw	low(STR_25|8000h)
  5924  007B  00F9               	movwf	(?_send_string)
  5925  007C  309F               	movlw	high(STR_25|8000h)
  5926  007D  00FA               	movwf	((?_send_string))+1
  5927  007E  120A  158A  26F6   	fcall	_send_string
              120A  118A         
  5928                           	line	486
  5929                           	
  5930  0083                     l788:	
  5931  0083  0008               	return
  5932                           	opt stack 0
  5933                           GLOBAL	__end_of_message2p
  5934  0084                     	__end_of_message2p:
  5935 ;; =============== function _message2p ends ============
  5936                           
  5937                           	signat	_message2p,88
  5938                           	global	_Forward
  5939                           psect	text737,local,class=CODE,delta=2
  5940                           global __ptext737
  5941  0E64                     __ptext737:
  5942                           
  5943 ;; *************** function _Forward *****************
  5944 ;; Defined at:
  5945 ;;		line 636 in file "PR17B.c"
  5946 ;; Parameters:    Size  Location     Type
  5947 ;;		None
  5948 ;; Auto vars:     Size  Location     Type
  5949 ;;		None
  5950 ;; Return value:  Size  Location     Type
  5951 ;;		None               void
  5952 ;; Registers used:
  5953 ;;		wreg, fsr0l, fsr0h, status,2, status,0, btemp+1, pclath, cstack
  5954 ;; Tracked objects:
  5955 ;;		On entry : 0/0
  5956 ;;		On exit  : 0/0
  5957 ;;		Unchanged: 0/0
  5958 ;; Data sizes:     COMMON   BANK0   BANK1   BANK3   BANK2
  5959 ;;      Params:         0       0       0       0       0
  5960 ;;      Locals:         0       0       0       0       0
  5961 ;;      Temps:          0       0       0       0       0
  5962 ;;      Totals:         0       0       0       0       0
  5963 ;;Total ram usage:        0 bytes
  5964 ;; Hardware stack levels used:    1
  5965 ;; Hardware stack levels required when called:    4
  5966 ;; This function calls:
  5967 ;;		_lcd_goto
  5968 ;;		_send_string
  5969 ;;		_tmr_delay
  5970 ;; This function is called by:
  5971 ;;		_Stand
  5972 ;; This function uses a non-reentrant model
  5973 ;;
  5974                           psect	text737
  5975                           	file	"PR17B.c"
  5976                           	line	636
  5977                           	global	__size_of_Forward
  5978  001F                     	__size_of_Forward	equ	__end_of_Forward-_Forward
  5979                           	
  5980  0E64                     _Forward:	
  5981                           	opt	stack 2
  5982                           ; Regs used in _Forward: [wreg-fsr0h+status,2+status,0+btemp+1+pclath+cstack]
  5983                           	line	637
  5984                           	
  5985  0E64                     l2866:	
  5986                           ;PR17B.c: 637: RC0 = 0;
  5987  0E64  1283               	bcf	status, 5	;RP0=0, select bank0
  5988  0E65  1303               	bcf	status, 6	;RP1=0, select bank0
  5989  0E66  1007               	bcf	(56/8),(56)&7
  5990                           	line	638
  5991                           	
  5992  0E67                     l2868:	
  5993                           ;PR17B.c: 638: lcd_goto(20);
  5994  0E67  3014               	movlw	(014h)
  5995  0E68  120A  158A  2628   	fcall	_lcd_goto
              120A  158A         
  5996                           	line	639
  5997                           	
  5998  0E6D                     l2870:	
  5999                           ;PR17B.c: 639: send_string("**forward**");
  6000  0E6D  3036               	movlw	low(STR_36|8000h)
  6001  0E6E  00F9               	movwf	(?_send_string)
  6002  0E6F  309F               	movlw	high(STR_36|8000h)
  6003  0E70  00FA               	movwf	((?_send_string))+1
  6004  0E71  120A  158A  26F6   	fcall	_send_string
              120A  158A         
  6005                           	line	640
  6006                           	
  6007  0E76                     l2872:	
  6008                           ;PR17B.c: 640: tmr_delay(300);
  6009  0E76  302C               	movlw	low(012Ch)
  6010  0E77  00F0               	movwf	(?_tmr_delay)
  6011  0E78  3001               	movlw	high(012Ch)
  6012  0E79  00F1               	movwf	((?_tmr_delay))+1
  6013  0E7A  120A  158A  26A4   	fcall	_tmr_delay
              120A  158A         
  6014                           	line	641
  6015                           	
  6016  0E7F                     l2874:	
  6017                           ;PR17B.c: 641: RC0 = 1;
  6018  0E7F  1283               	bcf	status, 5	;RP0=0, select bank0
  6019  0E80  1303               	bcf	status, 6	;RP1=0, select bank0
  6020  0E81  1407               	bsf	(56/8),(56)&7
  6021                           	line	642
  6022                           	
  6023  0E82                     l825:	
  6024  0E82  0008               	return
  6025                           	opt stack 0
  6026                           GLOBAL	__end_of_Forward
  6027  0E83                     	__end_of_Forward:
  6028 ;; =============== function _Forward ends ============
  6029                           
  6030                           	signat	_Forward,88
  6031                           	global	_Play_s
  6032                           psect	text738,local,class=CODE,delta=2
  6033                           global __ptext738
  6034  0E45                     __ptext738:
  6035                           
  6036 ;; *************** function _Play_s *****************
  6037 ;; Defined at:
  6038 ;;		line 645 in file "PR17B.c"
  6039 ;; Parameters:    Size  Location     Type
  6040 ;;		None
  6041 ;; Auto vars:     Size  Location     Type
  6042 ;;		None
  6043 ;; Return value:  Size  Location     Type
  6044 ;;		None               void
  6045 ;; Registers used:
  6046 ;;		wreg, fsr0l, fsr0h, status,2, status,0, btemp+1, pclath, cstack
  6047 ;; Tracked objects:
  6048 ;;		On entry : 0/0
  6049 ;;		On exit  : 0/0
  6050 ;;		Unchanged: 0/0
  6051 ;; Data sizes:     COMMON   BANK0   BANK1   BANK3   BANK2
  6052 ;;      Params:         0       0       0       0       0
  6053 ;;      Locals:         0       0       0       0       0
  6054 ;;      Temps:          0       0       0       0       0
  6055 ;;      Totals:         0       0       0       0       0
  6056 ;;Total ram usage:        0 bytes
  6057 ;; Hardware stack levels used:    1
  6058 ;; Hardware stack levels required when called:    4
  6059 ;; This function calls:
  6060 ;;		_lcd_goto
  6061 ;;		_send_string
  6062 ;;		_tmr_delay
  6063 ;; This function is called by:
  6064 ;;		_Stand
  6065 ;; This function uses a non-reentrant model
  6066 ;;
  6067                           psect	text738
  6068                           	file	"PR17B.c"
  6069                           	line	645
  6070                           	global	__size_of_Play_s
  6071  001F                     	__size_of_Play_s	equ	__end_of_Play_s-_Play_s
  6072                           	
  6073  0E45                     _Play_s:	
  6074                           	opt	stack 2
  6075                           ; Regs used in _Play_s: [wreg-fsr0h+status,2+status,0+btemp+1+pclath+cstack]
  6076                           	line	646
  6077                           	
  6078  0E45                     l2856:	
  6079                           ;PR17B.c: 646: RE2 = 0;
  6080  0E45  1283               	bcf	status, 5	;RP0=0, select bank0
  6081  0E46  1303               	bcf	status, 6	;RP1=0, select bank0
  6082  0E47  1109               	bcf	(74/8),(74)&7
  6083                           	line	647
  6084                           	
  6085  0E48                     l2858:	
  6086                           ;PR17B.c: 647: lcd_goto(20);
  6087  0E48  3014               	movlw	(014h)
  6088  0E49  120A  158A  2628   	fcall	_lcd_goto
              120A  158A         
  6089                           	line	648
  6090                           	
  6091  0E4E                     l2860:	
  6092                           ;PR17B.c: 648: send_string("**play**   ");
  6093  0E4E  3012               	movlw	low(STR_37|8000h)
  6094  0E4F  00F9               	movwf	(?_send_string)
  6095  0E50  309F               	movlw	high(STR_37|8000h)
  6096  0E51  00FA               	movwf	((?_send_string))+1
  6097  0E52  120A  158A  26F6   	fcall	_send_string
              120A  158A         
  6098                           	line	649
  6099                           	
  6100  0E57                     l2862:	
  6101                           ;PR17B.c: 649: tmr_delay(100);
  6102  0E57  3064               	movlw	low(064h)
  6103  0E58  00F0               	movwf	(?_tmr_delay)
  6104  0E59  3000               	movlw	high(064h)
  6105  0E5A  00F1               	movwf	((?_tmr_delay))+1
  6106  0E5B  120A  158A  26A4   	fcall	_tmr_delay
              120A  158A         
  6107                           	line	650
  6108                           	
  6109  0E60                     l2864:	
  6110                           ;PR17B.c: 650: RE2 =1;
  6111  0E60  1283               	bcf	status, 5	;RP0=0, select bank0
  6112  0E61  1303               	bcf	status, 6	;RP1=0, select bank0
  6113  0E62  1509               	bsf	(74/8),(74)&7
  6114                           	line	651
  6115                           	
  6116  0E63                     l828:	
  6117  0E63  0008               	return
  6118                           	opt stack 0
  6119                           GLOBAL	__end_of_Play_s
  6120  0E64                     	__end_of_Play_s:
  6121 ;; =============== function _Play_s ends ============
  6122                           
  6123                           	signat	_Play_s,88
  6124                           	global	_send_string
  6125                           psect	text739,local,class=CODE,delta=2
  6126                           global __ptext739
  6127  0EF6                     __ptext739:
  6128                           
  6129 ;; *************** function _send_string *****************
  6130 ;; Defined at:
  6131 ;;		line 270 in file "PR17B.c"
  6132 ;; Parameters:    Size  Location     Type
  6133 ;;  s               2    9[COMMON] PTR const unsigned char 
  6134 ;;		 -> STR_51(15), STR_50(7), STR_49(16), STR_48(16), 
  6135 ;;		 -> STR_47(16), STR_46(9), STR_45(12), STR_44(8), 
  6136 ;;		 -> STR_43(15), STR_42(11), STR_41(16), STR_40(16), 
  6137 ;;		 -> STR_39(16), STR_38(7), STR_37(12), STR_36(12), 
  6138 ;;		 -> STR_35(11), STR_34(17), STR_33(16), STR_32(11), 
  6139 ;;		 -> STR_31(16), STR_30(16), STR_29(13), STR_28(13), 
  6140 ;;		 -> STR_27(13), STR_26(9), STR_25(11), STR_24(17), 
  6141 ;;		 -> STR_23(14), STR_22(11), STR_21(16), STR_20(14), 
  6142 ;;		 -> STR_19(16), STR_18(16), STR_17(16), STR_16(7), 
  6143 ;;		 -> STR_15(16), STR_14(13), STR_13(16), STR_12(9), 
  6144 ;;		 -> STR_11(12), STR_10(12), STR_9(12), STR_8(11), 
  6145 ;;		 -> STR_7(12), STR_6(11), STR_5(10), STR_4(11), 
  6146 ;;		 -> STR_3(12), STR_2(13), STR_1(12), ERASE(8), 
  6147 ;;		 -> STD(13), SPI(11), 
  6148 ;; Auto vars:     Size  Location     Type
  6149 ;;		None
  6150 ;; Return value:  Size  Location     Type
  6151 ;;		None               void
  6152 ;; Registers used:
  6153 ;;		wreg, fsr0l, fsr0h, status,2, status,0, btemp+1, pclath, cstack
  6154 ;; Tracked objects:
  6155 ;;		On entry : 0/0
  6156 ;;		On exit  : 0/0
  6157 ;;		Unchanged: 0/0
  6158 ;; Data sizes:     COMMON   BANK0   BANK1   BANK3   BANK2
  6159 ;;      Params:         2       0       0       0       0
  6160 ;;      Locals:         0       0       0       0       0
  6161 ;;      Temps:          0       0       0       0       0
  6162 ;;      Totals:         2       0       0       0       0
  6163 ;;Total ram usage:        2 bytes
  6164 ;; Hardware stack levels used:    1
  6165 ;; Hardware stack levels required when called:    3
  6166 ;; This function calls:
  6167 ;;		_send_char
  6168 ;; This function is called by:
  6169 ;;		_main
  6170 ;;		_Spi
  6171 ;;		_Stand
  6172 ;;		_Play
  6173 ;;		_Record
  6174 ;;		_message1p
  6175 ;;		_message2p
  6176 ;;		_location
  6177 ;;		_message1r
  6178 ;;		_message2r
  6179 ;;		_Forward
  6180 ;;		_Play_s
  6181 ;;		_Option
  6182 ;;		_Record_s
  6183 ;;		_Erase
  6184 ;;		_erase
  6185 ;;		_g_erase
  6186 ;; This function uses a non-reentrant model
  6187 ;;
  6188                           psect	text739
  6189                           	file	"PR17B.c"
  6190                           	line	270
  6191                           	global	__size_of_send_string
  6192  0031                     	__size_of_send_string	equ	__end_of_send_string-_send_string
  6193                           	
  6194  0EF6                     _send_string:	
  6195                           	opt	stack 1
  6196                           ; Regs used in _send_string: [wreg-fsr0h+status,2+status,0+btemp+1+pclath+cstack]
  6197                           	line	272
  6198                           	
  6199  0EF6                     l2846:	
  6200                           ;PR17B.c: 272: while (s && *s)send_char (*s++);
  6201  0EF6  2F0E               	goto	l2852
  6202                           	
  6203  0EF7                     l688:	
  6204                           	
  6205  0EF7                     l2848:	
  6206  0EF7  087A               	movf	(send_string@s+1),w
  6207  0EF8  1283               	bcf	status, 5	;RP0=0, select bank0
  6208  0EF9  1303               	bcf	status, 6	;RP1=0, select bank0
  6209  0EFA  00FF               	movwf	btemp+1
  6210  0EFB  0879               	movf	(send_string@s),w
  6211  0EFC  0084               	movwf	fsr0
  6212  0EFD  160A  158A  2600   	fcall	stringtab
              120A  158A         
  6213  0F02  120A  158A  260F   	fcall	_send_char
              120A  158A         
  6214                           	
  6215  0F07                     l2850:	
  6216  0F07  3001               	movlw	low(01h)
  6217  0F08  07F9               	addwf	(send_string@s),f
  6218  0F09  1803               	skipnc
  6219  0F0A  0AFA               	incf	(send_string@s+1),f
  6220  0F0B  3000               	movlw	high(01h)
  6221  0F0C  07FA               	addwf	(send_string@s+1),f
  6222  0F0D  2F0E               	goto	l2852
  6223                           	
  6224  0F0E                     l687:	
  6225                           	
  6226  0F0E                     l2852:	
  6227  0F0E  087A               	movf	(send_string@s+1),w
  6228  0F0F  0479               	iorwf	(send_string@s),w
  6229  0F10  1903               	skipnz
  6230  0F11  2F13               	goto	u2711
  6231  0F12  2F14               	goto	u2710
  6232  0F13                     u2711:
  6233  0F13  2F26               	goto	l692
  6234  0F14                     u2710:
  6235                           	
  6236  0F14                     l2854:	
  6237  0F14  087A               	movf	(send_string@s+1),w
  6238  0F15  1283               	bcf	status, 5	;RP0=0, select bank0
  6239  0F16  1303               	bcf	status, 6	;RP1=0, select bank0
  6240  0F17  00FF               	movwf	btemp+1
  6241  0F18  0879               	movf	(send_string@s),w
  6242  0F19  0084               	movwf	fsr0
  6243  0F1A  160A  158A  2600   	fcall	stringtab
              120A  158A         
  6244  0F1F  3800               	iorlw	0
  6245  0F20  1D03               	skipz
  6246  0F21  2F23               	goto	u2721
  6247  0F22  2F24               	goto	u2720
  6248  0F23                     u2721:
  6249  0F23  2EF7               	goto	l2848
  6250  0F24                     u2720:
  6251  0F24  2F26               	goto	l692
  6252                           	
  6253  0F25                     l690:	
  6254  0F25  2F26               	goto	l692
  6255                           	
  6256  0F26                     l691:	
  6257                           	line	274
  6258                           	
  6259  0F26                     l692:	
  6260  0F26  0008               	return
  6261                           	opt stack 0
  6262                           GLOBAL	__end_of_send_string
  6263  0F27                     	__end_of_send_string:
  6264 ;; =============== function _send_string ends ============
  6265                           
  6266                           	signat	_send_string,4216
  6267                           	global	_lcd_goto
  6268                           psect	text740,local,class=CODE,delta=2
  6269                           global __ptext740
  6270  0E28                     __ptext740:
  6271                           
  6272 ;; *************** function _lcd_goto *****************
  6273 ;; Defined at:
  6274 ;;		line 251 in file "PR17B.c"
  6275 ;; Parameters:    Size  Location     Type
  6276 ;;  data            1    wreg     unsigned char 
  6277 ;; Auto vars:     Size  Location     Type
  6278 ;;  data            1   10[COMMON] unsigned char 
  6279 ;; Return value:  Size  Location     Type
  6280 ;;		None               void
  6281 ;; Registers used:
  6282 ;;		wreg, status,2, status,0, pclath, cstack
  6283 ;; Tracked objects:
  6284 ;;		On entry : 0/0
  6285 ;;		On exit  : 0/0
  6286 ;;		Unchanged: 0/0
  6287 ;; Data sizes:     COMMON   BANK0   BANK1   BANK3   BANK2
  6288 ;;      Params:         0       0       0       0       0
  6289 ;;      Locals:         1       0       0       0       0
  6290 ;;      Temps:          1       0       0       0       0
  6291 ;;      Totals:         2       0       0       0       0
  6292 ;;Total ram usage:        2 bytes
  6293 ;; Hardware stack levels used:    1
  6294 ;; Hardware stack levels required when called:    3
  6295 ;; This function calls:
  6296 ;;		_send_config
  6297 ;; This function is called by:
  6298 ;;		_main
  6299 ;;		_Spi
  6300 ;;		_Stand
  6301 ;;		_Play
  6302 ;;		_Record
  6303 ;;		_message1p
  6304 ;;		_message2p
  6305 ;;		_location
  6306 ;;		_message1r
  6307 ;;		_message2r
  6308 ;;		_Forward
  6309 ;;		_Play_s
  6310 ;;		_Option
  6311 ;;		_Record_s
  6312 ;;		_Erase
  6313 ;;		_erase
  6314 ;;		_g_erase
  6315 ;; This function uses a non-reentrant model
  6316 ;;
  6317                           psect	text740
  6318                           	file	"PR17B.c"
  6319                           	line	251
  6320                           	global	__size_of_lcd_goto
  6321  001D                     	__size_of_lcd_goto	equ	__end_of_lcd_goto-_lcd_goto
  6322                           	
  6323  0E28                     _lcd_goto:	
  6324                           	opt	stack 1
  6325                           ; Regs used in _lcd_goto: [wreg+status,2+status,0+pclath+cstack]
  6326                           ;lcd_goto@data stored from wreg
  6327  0E28  00FA               	movwf	(lcd_goto@data)
  6328                           	line	252
  6329                           	
  6330  0E29                     l2838:	
  6331                           ;PR17B.c: 252: if(data<16)
  6332  0E29  3010               	movlw	(010h)
  6333  0E2A  027A               	subwf	(lcd_goto@data),w
  6334  0E2B  1803               	skipnc
  6335  0E2C  2E2E               	goto	u2701
  6336  0E2D  2E2F               	goto	u2700
  6337  0E2E                     u2701:
  6338  0E2E  2E37               	goto	l2842
  6339  0E2F                     u2700:
  6340                           	line	254
  6341                           	
  6342  0E2F                     l2840:	
  6343                           ;PR17B.c: 253: {
  6344                           ;PR17B.c: 254: send_config(0x80+data);
  6345  0E2F  087A               	movf	(lcd_goto@data),w
  6346  0E30  3E80               	addlw	080h
  6347  0E31  120A  158A  25F6   	fcall	_send_config
              120A  158A         
  6348                           	line	255
  6349                           ;PR17B.c: 255: }
  6350  0E36  2E44               	goto	l681
  6351                           	line	256
  6352                           	
  6353  0E37                     l679:	
  6354                           	line	258
  6355                           	
  6356  0E37                     l2842:	
  6357                           ;PR17B.c: 256: else
  6358                           ;PR17B.c: 257: {
  6359                           ;PR17B.c: 258: data=data-20;
  6360  0E37  087A               	movf	(lcd_goto@data),w
  6361  0E38  3EEC               	addlw	0ECh
  6362  0E39  00F9               	movwf	(??_lcd_goto+0)+0
  6363  0E3A  0879               	movf	(??_lcd_goto+0)+0,w
  6364  0E3B  00FA               	movwf	(lcd_goto@data)
  6365                           	line	259
  6366                           	
  6367  0E3C                     l2844:	
  6368                           ;PR17B.c: 259: send_config(0xc0+data);
  6369  0E3C  087A               	movf	(lcd_goto@data),w
  6370  0E3D  3EC0               	addlw	0C0h
  6371  0E3E  120A  158A  25F6   	fcall	_send_config
              120A  158A         
  6372  0E43  2E44               	goto	l681
  6373                           	line	260
  6374                           	
  6375  0E44                     l680:	
  6376                           	line	261
  6377                           	
  6378  0E44                     l681:	
  6379  0E44  0008               	return
  6380                           	opt stack 0
  6381                           GLOBAL	__end_of_lcd_goto
  6382  0E45                     	__end_of_lcd_goto:
  6383 ;; =============== function _lcd_goto ends ============
  6384                           
  6385                           	signat	_lcd_goto,4216
  6386                           	global	_lcd_clr
  6387                           psect	text741,local,class=CODE,delta=2
  6388                           global __ptext741
  6389  0DCD                     __ptext741:
  6390                           
  6391 ;; *************** function _lcd_clr *****************
  6392 ;; Defined at:
  6393 ;;		line 264 in file "PR17B.c"
  6394 ;; Parameters:    Size  Location     Type
  6395 ;;		None
  6396 ;; Auto vars:     Size  Location     Type
  6397 ;;		None
  6398 ;; Return value:  Size  Location     Type
  6399 ;;		None               void
  6400 ;; Registers used:
  6401 ;;		wreg, status,2, status,0, pclath, cstack
  6402 ;; Tracked objects:
  6403 ;;		On entry : 0/0
  6404 ;;		On exit  : 0/0
  6405 ;;		Unchanged: 0/0
  6406 ;; Data sizes:     COMMON   BANK0   BANK1   BANK3   BANK2
  6407 ;;      Params:         0       0       0       0       0
  6408 ;;      Locals:         0       0       0       0       0
  6409 ;;      Temps:          0       0       0       0       0
  6410 ;;      Totals:         0       0       0       0       0
  6411 ;;Total ram usage:        0 bytes
  6412 ;; Hardware stack levels used:    1
  6413 ;; Hardware stack levels required when called:    3
  6414 ;; This function calls:
  6415 ;;		_send_config
  6416 ;;		_delay
  6417 ;; This function is called by:
  6418 ;;		_main
  6419 ;;		_Spi
  6420 ;;		_Stand
  6421 ;;		_Play
  6422 ;;		_Record
  6423 ;;		_message1p
  6424 ;;		_message2p
  6425 ;;		_location
  6426 ;;		_message1r
  6427 ;;		_message2r
  6428 ;;		_Option
  6429 ;;		_Record_s
  6430 ;;		_Erase
  6431 ;;		_erase
  6432 ;;		_g_erase
  6433 ;; This function uses a non-reentrant model
  6434 ;;
  6435                           psect	text741
  6436                           	file	"PR17B.c"
  6437                           	line	264
  6438                           	global	__size_of_lcd_clr
  6439  0014                     	__size_of_lcd_clr	equ	__end_of_lcd_clr-_lcd_clr
  6440                           	
  6441  0DCD                     _lcd_clr:	
  6442                           	opt	stack 1
  6443                           ; Regs used in _lcd_clr: [wreg+status,2+status,0+pclath+cstack]
  6444                           	line	265
  6445                           	
  6446  0DCD                     l2836:	
  6447                           ;PR17B.c: 265: send_config(0x01);
  6448  0DCD  3001               	movlw	(01h)
  6449  0DCE  120A  158A  25F6   	fcall	_send_config
              120A  158A         
  6450                           	line	266
  6451                           ;PR17B.c: 266: delay(50);
  6452  0DD3  3000               	movlw	0
  6453  0DD4  00F3               	movwf	(?_delay+3)
  6454  0DD5  3000               	movlw	0
  6455  0DD6  00F2               	movwf	(?_delay+2)
  6456  0DD7  3000               	movlw	0
  6457  0DD8  00F1               	movwf	(?_delay+1)
  6458  0DD9  3032               	movlw	032h
  6459  0DDA  00F0               	movwf	(?_delay)
  6460                           
  6461  0DDB  120A  158A  26C6   	fcall	_delay
              120A  158A         
  6462                           	line	267
  6463                           	
  6464  0DE0                     l684:	
  6465  0DE0  0008               	return
  6466                           	opt stack 0
  6467                           GLOBAL	__end_of_lcd_clr
  6468  0DE1                     	__end_of_lcd_clr:
  6469 ;; =============== function _lcd_clr ends ============
  6470                           
  6471                           	signat	_lcd_clr,88
  6472                           	global	_Init
  6473                           psect	text742,local,class=CODE,delta=2
  6474                           global __ptext742
  6475  04E1                     __ptext742:
  6476                           
  6477 ;; *************** function _Init *****************
  6478 ;; Defined at:
  6479 ;;		line 119 in file "PR17B.c"
  6480 ;; Parameters:    Size  Location     Type
  6481 ;;		None
  6482 ;; Auto vars:     Size  Location     Type
  6483 ;;		None
  6484 ;; Return value:  Size  Location     Type
  6485 ;;		None               void
  6486 ;; Registers used:
  6487 ;;		wreg, status,2, status,0, pclath, cstack
  6488 ;; Tracked objects:
  6489 ;;		On entry : 0/0
  6490 ;;		On exit  : 0/0
  6491 ;;		Unchanged: 0/0
  6492 ;; Data sizes:     COMMON   BANK0   BANK1   BANK3   BANK2
  6493 ;;      Params:         0       0       0       0       0
  6494 ;;      Locals:         0       0       0       0       0
  6495 ;;      Temps:          0       0       0       0       0
  6496 ;;      Totals:         0       0       0       0       0
  6497 ;;Total ram usage:        0 bytes
  6498 ;; Hardware stack levels used:    1
  6499 ;; Hardware stack levels required when called:    3
  6500 ;; This function calls:
  6501 ;;		_send_config
  6502 ;;		_spi_initialize
  6503 ;;		_uc_send_receive_spi
  6504 ;;		_tmr_delay
  6505 ;; This function is called by:
  6506 ;;		_main
  6507 ;; This function uses a non-reentrant model
  6508 ;;
  6509                           psect	text742
  6510                           	file	"PR17B.c"
  6511                           	line	119
  6512                           	global	__size_of_Init
  6513  008A                     	__size_of_Init	equ	__end_of_Init-_Init
  6514                           	
  6515  04E1                     _Init:	
  6516                           	opt	stack 4
  6517                           ; Regs used in _Init: [wreg+status,2+status,0+pclath+cstack]
  6518                           	line	120
  6519                           	
  6520  04E1                     l2764:	
  6521                           ;PR17B.c: 120: TRISA = 0b00000000;
  6522  04E1  1683               	bsf	status, 5	;RP0=1, select bank1
  6523  04E2  1303               	bcf	status, 6	;RP1=0, select bank1
  6524  04E3  0185               	clrf	(133)^080h	;volatile
  6525                           	line	121
  6526                           ;PR17B.c: 121: TRISB = 0b00000000;
  6527  04E4  0186               	clrf	(134)^080h	;volatile
  6528                           	line	122
  6529                           ;PR17B.c: 122: TRISC = 0b00000000;
  6530  04E5  0187               	clrf	(135)^080h	;volatile
  6531                           	line	123
  6532                           	
  6533  04E6                     l2766:	
  6534                           ;PR17B.c: 123: TRISD = 0b00110000;
  6535  04E6  3030               	movlw	(030h)
  6536  04E7  0088               	movwf	(136)^080h	;volatile
  6537                           	line	124
  6538                           	
  6539  04E8                     l2768:	
  6540                           ;PR17B.c: 124: TRISE = 0x00;
  6541  04E8  0189               	clrf	(137)^080h	;volatile
  6542                           	line	125
  6543                           	
  6544  04E9                     l2770:	
  6545                           ;PR17B.c: 125: PORTA = 0;
  6546  04E9  1283               	bcf	status, 5	;RP0=0, select bank0
  6547  04EA  1303               	bcf	status, 6	;RP1=0, select bank0
  6548  04EB  0185               	clrf	(5)	;volatile
  6549                           	line	126
  6550                           	
  6551  04EC                     l2772:	
  6552                           ;PR17B.c: 126: PORTD = 0;
  6553  04EC  0188               	clrf	(8)	;volatile
  6554                           	line	127
  6555                           	
  6556  04ED                     l2774:	
  6557                           ;PR17B.c: 127: PORTE = 0;
  6558  04ED  0189               	clrf	(9)	;volatile
  6559                           	line	128
  6560                           	
  6561  04EE                     l2776:	
  6562                           ;PR17B.c: 128: ADCON1 = 0b00000110;
  6563  04EE  3006               	movlw	(06h)
  6564  04EF  1683               	bsf	status, 5	;RP0=1, select bank1
  6565  04F0  1303               	bcf	status, 6	;RP1=0, select bank1
  6566  04F1  009F               	movwf	(159)^080h	;volatile
  6567                           	line	129
  6568                           	
  6569  04F2                     l2778:	
  6570                           ;PR17B.c: 129: RD3 = 1;
  6571  04F2  1283               	bcf	status, 5	;RP0=0, select bank0
  6572  04F3  1303               	bcf	status, 6	;RP1=0, select bank0
  6573  04F4  1588               	bsf	(67/8),(67)&7
  6574                           	line	130
  6575                           	
  6576  04F5                     l2780:	
  6577                           ;PR17B.c: 130: RA0 = 1;
  6578  04F5  1405               	bsf	(40/8),(40)&7
  6579                           	line	131
  6580                           	
  6581  04F6                     l2782:	
  6582                           ;PR17B.c: 131: RC0 = 1;
  6583  04F6  1407               	bsf	(56/8),(56)&7
  6584                           	line	132
  6585                           	
  6586  04F7                     l2784:	
  6587                           ;PR17B.c: 132: RE2 = 1;
  6588  04F7  1509               	bsf	(74/8),(74)&7
  6589                           	line	134
  6590                           	
  6591  04F8                     l2786:	
  6592                           ;PR17B.c: 134: send_config(0b00000001);
  6593  04F8  3001               	movlw	(01h)
  6594  04F9  120A  158A  25F6   	fcall	_send_config
              120A  118A         
  6595                           	line	135
  6596                           	
  6597  04FE                     l2788:	
  6598                           ;PR17B.c: 135: send_config(0b00000010);
  6599  04FE  3002               	movlw	(02h)
  6600  04FF  120A  158A  25F6   	fcall	_send_config
              120A  118A         
  6601                           	line	136
  6602                           	
  6603  0504                     l2790:	
  6604                           ;PR17B.c: 136: send_config(0b00000110);
  6605  0504  3006               	movlw	(06h)
  6606  0505  120A  158A  25F6   	fcall	_send_config
              120A  118A         
  6607                           	line	137
  6608                           	
  6609  050A                     l2792:	
  6610                           ;PR17B.c: 137: send_config(0b00001100);
  6611  050A  300C               	movlw	(0Ch)
  6612  050B  120A  158A  25F6   	fcall	_send_config
              120A  118A         
  6613                           	line	138
  6614                           	
  6615  0510                     l2794:	
  6616                           ;PR17B.c: 138: send_config(0b00111000);
  6617  0510  3038               	movlw	(038h)
  6618  0511  120A  158A  25F6   	fcall	_send_config
              120A  118A         
  6619                           	line	142
  6620                           	
  6621  0516                     l2796:	
  6622                           ;PR17B.c: 142: T0CS = 0;
  6623  0516  1683               	bsf	status, 5	;RP0=1, select bank1
  6624  0517  1303               	bcf	status, 6	;RP1=0, select bank1
  6625  0518  1281               	bcf	(1037/8)^080h,(1037)&7
  6626                           	line	143
  6627                           	
  6628  0519                     l2798:	
  6629                           ;PR17B.c: 143: PSA = 0;
  6630  0519  1181               	bcf	(1035/8)^080h,(1035)&7
  6631                           	line	144
  6632                           	
  6633  051A                     l2800:	
  6634                           ;PR17B.c: 144: PS2 = 1;
  6635  051A  1501               	bsf	(1034/8)^080h,(1034)&7
  6636                           	line	145
  6637                           	
  6638  051B                     l2802:	
  6639                           ;PR17B.c: 145: PS1 = 1;
  6640  051B  1481               	bsf	(1033/8)^080h,(1033)&7
  6641                           	line	146
  6642                           	
  6643  051C                     l2804:	
  6644                           ;PR17B.c: 146: PS0 = 1;
  6645  051C  1401               	bsf	(1032/8)^080h,(1032)&7
  6646                           	line	148
  6647                           	
  6648  051D                     l2806:	
  6649                           ;PR17B.c: 148: spi_initialize();
  6650  051D  120A  118A  2004   	fcall	_spi_initialize
              120A  118A         
  6651                           	line	151
  6652                           	
  6653  0522                     l2808:	
  6654                           ;PR17B.c: 151: RE1 = 0;
  6655  0522  1283               	bcf	status, 5	;RP0=0, select bank0
  6656  0523  1303               	bcf	status, 6	;RP1=0, select bank0
  6657  0524  1089               	bcf	(73/8),(73)&7
  6658                           	line	152
  6659                           	
  6660  0525                     l2810:	
  6661                           ;PR17B.c: 152: uc_send_receive_spi(0b10000000);
  6662  0525  3080               	movlw	(080h)
  6663  0526  120A  158A  25BB   	fcall	_uc_send_receive_spi
              120A  118A         
  6664                           	line	153
  6665                           	
  6666  052B                     l2812:	
  6667                           ;PR17B.c: 153: uc_send_receive_spi(0b00000000);
  6668  052B  3000               	movlw	(0)
  6669  052C  120A  158A  25BB   	fcall	_uc_send_receive_spi
              120A  118A         
  6670                           	line	154
  6671                           	
  6672  0531                     l2814:	
  6673                           ;PR17B.c: 154: RE1 = 1;
  6674  0531  1283               	bcf	status, 5	;RP0=0, select bank0
  6675  0532  1303               	bcf	status, 6	;RP1=0, select bank0
  6676  0533  1489               	bsf	(73/8),(73)&7
  6677                           	line	156
  6678                           	
  6679  0534                     l2816:	
  6680                           ;PR17B.c: 156: tmr_delay(10);
  6681  0534  300A               	movlw	low(0Ah)
  6682  0535  00F0               	movwf	(?_tmr_delay)
  6683  0536  3000               	movlw	high(0Ah)
  6684  0537  00F1               	movwf	((?_tmr_delay))+1
  6685  0538  120A  158A  26A4   	fcall	_tmr_delay
              120A  118A         
  6686                           	line	158
  6687                           	
  6688  053D                     l2818:	
  6689                           ;PR17B.c: 158: RE1 = 0;
  6690  053D  1283               	bcf	status, 5	;RP0=0, select bank0
  6691  053E  1303               	bcf	status, 6	;RP1=0, select bank0
  6692  053F  1089               	bcf	(73/8),(73)&7
  6693                           	line	159
  6694                           	
  6695  0540                     l2820:	
  6696                           ;PR17B.c: 159: uc_send_receive_spi(0b11000000);
  6697  0540  30C0               	movlw	(0C0h)
  6698  0541  120A  158A  25BB   	fcall	_uc_send_receive_spi
              120A  118A         
  6699                           	line	160
  6700                           	
  6701  0546                     l2822:	
  6702                           ;PR17B.c: 160: uc_send_receive_spi(0b00000000);
  6703  0546  3000               	movlw	(0)
  6704  0547  120A  158A  25BB   	fcall	_uc_send_receive_spi
              120A  118A         
  6705                           	line	161
  6706                           	
  6707  054C                     l2824:	
  6708                           ;PR17B.c: 161: RE1 = 1;
  6709  054C  1283               	bcf	status, 5	;RP0=0, select bank0
  6710  054D  1303               	bcf	status, 6	;RP1=0, select bank0
  6711  054E  1489               	bsf	(73/8),(73)&7
  6712                           	line	163
  6713                           	
  6714  054F                     l2826:	
  6715                           ;PR17B.c: 163: tmr_delay(10);
  6716  054F  300A               	movlw	low(0Ah)
  6717  0550  00F0               	movwf	(?_tmr_delay)
  6718  0551  3000               	movlw	high(0Ah)
  6719  0552  00F1               	movwf	((?_tmr_delay))+1
  6720  0553  120A  158A  26A4   	fcall	_tmr_delay
              120A  118A         
  6721                           	line	165
  6722                           	
  6723  0558                     l2828:	
  6724                           ;PR17B.c: 165: RE1 = 0;
  6725  0558  1283               	bcf	status, 5	;RP0=0, select bank0
  6726  0559  1303               	bcf	status, 6	;RP1=0, select bank0
  6727  055A  1089               	bcf	(73/8),(73)&7
  6728                           	line	166
  6729                           	
  6730  055B                     l2830:	
  6731                           ;PR17B.c: 166: uc_send_receive_spi(0b11100000);
  6732  055B  30E0               	movlw	(0E0h)
  6733  055C  120A  158A  25BB   	fcall	_uc_send_receive_spi
              120A  118A         
  6734                           	line	167
  6735                           	
  6736  0561                     l2832:	
  6737                           ;PR17B.c: 167: uc_send_receive_spi(0b00000000);
  6738  0561  3000               	movlw	(0)
  6739  0562  120A  158A  25BB   	fcall	_uc_send_receive_spi
              120A  118A         
  6740                           	line	168
  6741                           	
  6742  0567                     l2834:	
  6743                           ;PR17B.c: 168: RE1 = 1;
  6744  0567  1283               	bcf	status, 5	;RP0=0, select bank0
  6745  0568  1303               	bcf	status, 6	;RP1=0, select bank0
  6746  0569  1489               	bsf	(73/8),(73)&7
  6747                           	line	169
  6748                           	
  6749  056A                     l645:	
  6750  056A  0008               	return
  6751                           	opt stack 0
  6752                           GLOBAL	__end_of_Init
  6753  056B                     	__end_of_Init:
  6754 ;; =============== function _Init ends ============
  6755                           
  6756                           	signat	_Init,88
  6757                           	global	_send_char
  6758                           psect	text743,local,class=CODE,delta=2
  6759                           global __ptext743
  6760  0E0F                     __ptext743:
  6761                           
  6762 ;; *************** function _send_char *****************
  6763 ;; Defined at:
  6764 ;;		line 235 in file "PR17B.c"
  6765 ;; Parameters:    Size  Location     Type
  6766 ;;  data            1    wreg     unsigned char 
  6767 ;; Auto vars:     Size  Location     Type
  6768 ;;  data            1    8[COMMON] unsigned char 
  6769 ;; Return value:  Size  Location     Type
  6770 ;;		None               void
  6771 ;; Registers used:
  6772 ;;		wreg, status,2, status,0, pclath, cstack
  6773 ;; Tracked objects:
  6774 ;;		On entry : 0/0
  6775 ;;		On exit  : 0/0
  6776 ;;		Unchanged: 0/0
  6777 ;; Data sizes:     COMMON   BANK0   BANK1   BANK3   BANK2
  6778 ;;      Params:         0       0       0       0       0
  6779 ;;      Locals:         1       0       0       0       0
  6780 ;;      Temps:          0       0       0       0       0
  6781 ;;      Totals:         1       0       0       0       0
  6782 ;;Total ram usage:        1 bytes
  6783 ;; Hardware stack levels used:    1
  6784 ;; Hardware stack levels required when called:    2
  6785 ;; This function calls:
  6786 ;;		_delay
  6787 ;;		_e_pulse
  6788 ;; This function is called by:
  6789 ;;		_send_string
  6790 ;; This function uses a non-reentrant model
  6791 ;;
  6792                           psect	text743
  6793                           	file	"PR17B.c"
  6794                           	line	235
  6795                           	global	__size_of_send_char
  6796  0019                     	__size_of_send_char	equ	__end_of_send_char-_send_char
  6797                           	
  6798  0E0F                     _send_char:	
  6799                           	opt	stack 1
  6800                           ; Regs used in _send_char: [wreg+status,2+status,0+pclath+cstack]
  6801                           ;send_char@data stored from wreg
  6802  0E0F  00F8               	movwf	(send_char@data)
  6803                           	line	236
  6804                           	
  6805  0E10                     l2756:	
  6806                           ;PR17B.c: 236: RD6=1;
  6807  0E10  1283               	bcf	status, 5	;RP0=0, select bank0
  6808  0E11  1303               	bcf	status, 6	;RP1=0, select bank0
  6809  0E12  1708               	bsf	(70/8),(70)&7
  6810                           	line	237
  6811                           	
  6812  0E13                     l2758:	
  6813                           ;PR17B.c: 237: PORTB=data;
  6814  0E13  0878               	movf	(send_char@data),w
  6815  0E14  0086               	movwf	(6)	;volatile
  6816                           	line	238
  6817                           	
  6818  0E15                     l2760:	
  6819                           ;PR17B.c: 238: delay(50);
  6820  0E15  3000               	movlw	0
  6821  0E16  00F3               	movwf	(?_delay+3)
  6822  0E17  3000               	movlw	0
  6823  0E18  00F2               	movwf	(?_delay+2)
  6824  0E19  3000               	movlw	0
  6825  0E1A  00F1               	movwf	(?_delay+1)
  6826  0E1B  3032               	movlw	032h
  6827  0E1C  00F0               	movwf	(?_delay)
  6828                           
  6829  0E1D  120A  158A  26C6   	fcall	_delay
              120A  158A         
  6830                           	line	239
  6831                           	
  6832  0E22                     l2762:	
  6833                           ;PR17B.c: 239: e_pulse();
  6834  0E22  120A  158A  2683   	fcall	_e_pulse
              120A  158A         
  6835                           	line	240
  6836                           	
  6837  0E27                     l673:	
  6838  0E27  0008               	return
  6839                           	opt stack 0
  6840                           GLOBAL	__end_of_send_char
  6841  0E28                     	__end_of_send_char:
  6842 ;; =============== function _send_char ends ============
  6843                           
  6844                           	signat	_send_char,4216
  6845                           	global	_send_config
  6846                           psect	text744,local,class=CODE,delta=2
  6847                           global __ptext744
  6848  0DF6                     __ptext744:
  6849                           
  6850 ;; *************** function _send_config *****************
  6851 ;; Defined at:
  6852 ;;		line 227 in file "PR17B.c"
  6853 ;; Parameters:    Size  Location     Type
  6854 ;;  data            1    wreg     unsigned char 
  6855 ;; Auto vars:     Size  Location     Type
  6856 ;;  data            1    8[COMMON] unsigned char 
  6857 ;; Return value:  Size  Location     Type
  6858 ;;		None               void
  6859 ;; Registers used:
  6860 ;;		wreg, status,2, status,0, pclath, cstack
  6861 ;; Tracked objects:
  6862 ;;		On entry : 0/0
  6863 ;;		On exit  : 0/0
  6864 ;;		Unchanged: 0/0
  6865 ;; Data sizes:     COMMON   BANK0   BANK1   BANK3   BANK2
  6866 ;;      Params:         0       0       0       0       0
  6867 ;;      Locals:         1       0       0       0       0
  6868 ;;      Temps:          0       0       0       0       0
  6869 ;;      Totals:         1       0       0       0       0
  6870 ;;Total ram usage:        1 bytes
  6871 ;; Hardware stack levels used:    1
  6872 ;; Hardware stack levels required when called:    2
  6873 ;; This function calls:
  6874 ;;		_delay
  6875 ;;		_e_pulse
  6876 ;; This function is called by:
  6877 ;;		_Init
  6878 ;;		_lcd_goto
  6879 ;;		_lcd_clr
  6880 ;; This function uses a non-reentrant model
  6881 ;;
  6882                           psect	text744
  6883                           	file	"PR17B.c"
  6884                           	line	227
  6885                           	global	__size_of_send_config
  6886  0019                     	__size_of_send_config	equ	__end_of_send_config-_send_config
  6887                           	
  6888  0DF6                     _send_config:	
  6889                           	opt	stack 1
  6890                           ; Regs used in _send_config: [wreg+status,2+status,0+pclath+cstack]
  6891                           ;send_config@data stored from wreg
  6892  0DF6  00F8               	movwf	(send_config@data)
  6893                           	line	228
  6894                           	
  6895  0DF7                     l2748:	
  6896                           ;PR17B.c: 228: RD6=0;
  6897  0DF7  1283               	bcf	status, 5	;RP0=0, select bank0
  6898  0DF8  1303               	bcf	status, 6	;RP1=0, select bank0
  6899  0DF9  1308               	bcf	(70/8),(70)&7
  6900                           	line	229
  6901                           	
  6902  0DFA                     l2750:	
  6903                           ;PR17B.c: 229: PORTB=data;
  6904  0DFA  0878               	movf	(send_config@data),w
  6905  0DFB  0086               	movwf	(6)	;volatile
  6906                           	line	230
  6907                           	
  6908  0DFC                     l2752:	
  6909                           ;PR17B.c: 230: delay(50);
  6910  0DFC  3000               	movlw	0
  6911  0DFD  00F3               	movwf	(?_delay+3)
  6912  0DFE  3000               	movlw	0
  6913  0DFF  00F2               	movwf	(?_delay+2)
  6914  0E00  3000               	movlw	0
  6915  0E01  00F1               	movwf	(?_delay+1)
  6916  0E02  3032               	movlw	032h
  6917  0E03  00F0               	movwf	(?_delay)
  6918                           
  6919  0E04  120A  158A  26C6   	fcall	_delay
              120A  158A         
  6920                           	line	231
  6921                           	
  6922  0E09                     l2754:	
  6923                           ;PR17B.c: 231: e_pulse();
  6924  0E09  120A  158A  2683   	fcall	_e_pulse
              120A  158A         
  6925                           	line	232
  6926                           	
  6927  0E0E                     l670:	
  6928  0E0E  0008               	return
  6929                           	opt stack 0
  6930                           GLOBAL	__end_of_send_config
  6931  0E0F                     	__end_of_send_config:
  6932 ;; =============== function _send_config ends ============
  6933                           
  6934                           	signat	_send_config,4216
  6935                           	global	_e_pulse
  6936                           psect	text745,local,class=CODE,delta=2
  6937                           global __ptext745
  6938  0E83                     __ptext745:
  6939                           
  6940 ;; *************** function _e_pulse *****************
  6941 ;; Defined at:
  6942 ;;		line 243 in file "PR17B.c"
  6943 ;; Parameters:    Size  Location     Type
  6944 ;;		None
  6945 ;; Auto vars:     Size  Location     Type
  6946 ;;		None
  6947 ;; Return value:  Size  Location     Type
  6948 ;;		None               void
  6949 ;; Registers used:
  6950 ;;		wreg, status,2, status,0, pclath, cstack
  6951 ;; Tracked objects:
  6952 ;;		On entry : 0/0
  6953 ;;		On exit  : 0/0
  6954 ;;		Unchanged: 0/0
  6955 ;; Data sizes:     COMMON   BANK0   BANK1   BANK3   BANK2
  6956 ;;      Params:         0       0       0       0       0
  6957 ;;      Locals:         0       0       0       0       0
  6958 ;;      Temps:          0       0       0       0       0
  6959 ;;      Totals:         0       0       0       0       0
  6960 ;;Total ram usage:        0 bytes
  6961 ;; Hardware stack levels used:    1
  6962 ;; Hardware stack levels required when called:    1
  6963 ;; This function calls:
  6964 ;;		_delay
  6965 ;; This function is called by:
  6966 ;;		_send_config
  6967 ;;		_send_char
  6968 ;; This function uses a non-reentrant model
  6969 ;;
  6970                           psect	text745
  6971                           	file	"PR17B.c"
  6972                           	line	243
  6973                           	global	__size_of_e_pulse
  6974  0021                     	__size_of_e_pulse	equ	__end_of_e_pulse-_e_pulse
  6975                           	
  6976  0E83                     _e_pulse:	
  6977                           	opt	stack 1
  6978                           ; Regs used in _e_pulse: [wreg+status,2+status,0+pclath+cstack]
  6979                           	line	244
  6980                           	
  6981  0E83                     l2742:	
  6982                           ;PR17B.c: 244: RD7=1;
  6983  0E83  1283               	bcf	status, 5	;RP0=0, select bank0
  6984  0E84  1303               	bcf	status, 6	;RP1=0, select bank0
  6985  0E85  1788               	bsf	(71/8),(71)&7
  6986                           	line	245
  6987                           	
  6988  0E86                     l2744:	
  6989                           ;PR17B.c: 245: delay(50);
  6990  0E86  3000               	movlw	0
  6991  0E87  00F3               	movwf	(?_delay+3)
  6992  0E88  3000               	movlw	0
  6993  0E89  00F2               	movwf	(?_delay+2)
  6994  0E8A  3000               	movlw	0
  6995  0E8B  00F1               	movwf	(?_delay+1)
  6996  0E8C  3032               	movlw	032h
  6997  0E8D  00F0               	movwf	(?_delay)
  6998                           
  6999  0E8E  120A  158A  26C6   	fcall	_delay
              120A  158A         
  7000                           	line	246
  7001                           	
  7002  0E93                     l2746:	
  7003                           ;PR17B.c: 246: RD7=0;
  7004  0E93  1283               	bcf	status, 5	;RP0=0, select bank0
  7005  0E94  1303               	bcf	status, 6	;RP1=0, select bank0
  7006  0E95  1388               	bcf	(71/8),(71)&7
  7007                           	line	247
  7008                           ;PR17B.c: 247: delay(50);
  7009  0E96  3000               	movlw	0
  7010  0E97  00F3               	movwf	(?_delay+3)
  7011  0E98  3000               	movlw	0
  7012  0E99  00F2               	movwf	(?_delay+2)
  7013  0E9A  3000               	movlw	0
  7014  0E9B  00F1               	movwf	(?_delay+1)
  7015  0E9C  3032               	movlw	032h
  7016  0E9D  00F0               	movwf	(?_delay)
  7017                           
  7018  0E9E  120A  158A  26C6   	fcall	_delay
              120A  158A         
  7019                           	line	248
  7020                           	
  7021  0EA3                     l676:	
  7022  0EA3  0008               	return
  7023                           	opt stack 0
  7024                           GLOBAL	__end_of_e_pulse
  7025  0EA4                     	__end_of_e_pulse:
  7026 ;; =============== function _e_pulse ends ============
  7027                           
  7028                           	signat	_e_pulse,88
  7029                           	global	_delay
  7030                           psect	text746,local,class=CODE,delta=2
  7031                           global __ptext746
  7032  0EC6                     __ptext746:
  7033                           
  7034 ;; *************** function _delay *****************
  7035 ;; Defined at:
  7036 ;;		line 213 in file "PR17B.c"
  7037 ;; Parameters:    Size  Location     Type
  7038 ;;  data            4    0[COMMON] unsigned long 
  7039 ;; Auto vars:     Size  Location     Type
  7040 ;;		None
  7041 ;; Return value:  Size  Location     Type
  7042 ;;		None               void
  7043 ;; Registers used:
  7044 ;;		wreg
  7045 ;; Tracked objects:
  7046 ;;		On entry : 0/0
  7047 ;;		On exit  : 0/0
  7048 ;;		Unchanged: 0/0
  7049 ;; Data sizes:     COMMON   BANK0   BANK1   BANK3   BANK2
  7050 ;;      Params:         4       0       0       0       0
  7051 ;;      Locals:         0       0       0       0       0
  7052 ;;      Temps:          4       0       0       0       0
  7053 ;;      Totals:         8       0       0       0       0
  7054 ;;Total ram usage:        8 bytes
  7055 ;; Hardware stack levels used:    1
  7056 ;; This function calls:
  7057 ;;		Nothing
  7058 ;; This function is called by:
  7059 ;;		_send_config
  7060 ;;		_send_char
  7061 ;;		_e_pulse
  7062 ;;		_lcd_clr
  7063 ;; This function uses a non-reentrant model
  7064 ;;
  7065                           psect	text746
  7066                           	file	"PR17B.c"
  7067                           	line	213
  7068                           	global	__size_of_delay
  7069  0030                     	__size_of_delay	equ	__end_of_delay-_delay
  7070                           	
  7071  0EC6                     _delay:	
  7072                           	opt	stack 1
  7073                           ; Regs used in _delay: [wreg]
  7074                           	line	214
  7075                           	
  7076  0EC6                     l2736:	
  7077                           ;PR17B.c: 214: for( ;data>0;data-=1);
  7078  0EC6  0873               	movf	(delay@data+3),w
  7079  0EC7  0472               	iorwf	(delay@data+2),w
  7080  0EC8  0471               	iorwf	(delay@data+1),w
  7081  0EC9  0470               	iorwf	(delay@data),w
  7082  0ECA  1D03               	skipz
  7083  0ECB  2ECD               	goto	u2671
  7084  0ECC  2ECE               	goto	u2670
  7085  0ECD                     u2671:
  7086  0ECD  2ED0               	goto	l2740
  7087  0ECE                     u2670:
  7088  0ECE  2EF5               	goto	l659
  7089                           	
  7090  0ECF                     l2738:	
  7091  0ECF  2EF5               	goto	l659
  7092                           	
  7093  0ED0                     l657:	
  7094                           	
  7095  0ED0                     l2740:	
  7096  0ED0  3001               	movlw	01h
  7097  0ED1  00F4               	movwf	((??_delay+0)+0)
  7098  0ED2  3000               	movlw	0
  7099  0ED3  00F5               	movwf	((??_delay+0)+0+1)
  7100  0ED4  3000               	movlw	0
  7101  0ED5  00F6               	movwf	((??_delay+0)+0+2)
  7102  0ED6  3000               	movlw	0
  7103  0ED7  00F7               	movwf	((??_delay+0)+0+3)
  7104  0ED8  0874               	movf	0+(??_delay+0)+0,w
  7105  0ED9  02F0               	subwf	(delay@data),f
  7106  0EDA  0875               	movf	1+(??_delay+0)+0,w
  7107  0EDB  1C03               	skipc
  7108  0EDC  0F75               	incfsz	1+(??_delay+0)+0,w
  7109  0EDD  2EDF               	goto	u2685
  7110  0EDE  2EE0               	goto	u2686
  7111  0EDF                     u2685:
  7112  0EDF  02F1               	subwf	(delay@data+1),f
  7113  0EE0                     u2686:
  7114  0EE0  0876               	movf	2+(??_delay+0)+0,w
  7115  0EE1  1C03               	skipc
  7116  0EE2  0F76               	incfsz	2+(??_delay+0)+0,w
  7117  0EE3  2EE5               	goto	u2687
  7118  0EE4  2EE6               	goto	u2688
  7119  0EE5                     u2687:
  7120  0EE5  02F2               	subwf	(delay@data+2),f
  7121  0EE6                     u2688:
  7122  0EE6  0877               	movf	3+(??_delay+0)+0,w
  7123  0EE7  1C03               	skipc
  7124  0EE8  0F77               	incfsz	3+(??_delay+0)+0,w
  7125  0EE9  2EEB               	goto	u2689
  7126  0EEA  2EEC               	goto	u2680
  7127  0EEB                     u2689:
  7128  0EEB  02F3               	subwf	(delay@data+3),f
  7129  0EEC                     u2680:
  7130                           
  7131  0EEC  0873               	movf	(delay@data+3),w
  7132  0EED  0472               	iorwf	(delay@data+2),w
  7133  0EEE  0471               	iorwf	(delay@data+1),w
  7134  0EEF  0470               	iorwf	(delay@data),w
  7135  0EF0  1D03               	skipz
  7136  0EF1  2EF3               	goto	u2691
  7137  0EF2  2EF4               	goto	u2690
  7138  0EF3                     u2691:
  7139  0EF3  2ED0               	goto	l2740
  7140  0EF4                     u2690:
  7141  0EF4  2EF5               	goto	l659
  7142                           	
  7143  0EF5                     l658:	
  7144                           	line	215
  7145                           	
  7146  0EF5                     l659:	
  7147  0EF5  0008               	return
  7148                           	opt stack 0
  7149                           GLOBAL	__end_of_delay
  7150  0EF6                     	__end_of_delay:
  7151 ;; =============== function _delay ends ============
  7152                           
  7153                           	signat	_delay,4216
  7154                           	global	_tmr_delay
  7155                           psect	text747,local,class=CODE,delta=2
  7156                           global __ptext747
  7157  0EA4                     __ptext747:
  7158                           
  7159 ;; *************** function _tmr_delay *****************
  7160 ;; Defined at:
  7161 ;;		line 218 in file "PR17B.c"
  7162 ;; Parameters:    Size  Location     Type
  7163 ;;  lenght          2    0[COMMON] unsigned short 
  7164 ;; Auto vars:     Size  Location     Type
  7165 ;;		None
  7166 ;; Return value:  Size  Location     Type
  7167 ;;		None               void
  7168 ;; Registers used:
  7169 ;;		wreg, status,2, status,0
  7170 ;; Tracked objects:
  7171 ;;		On entry : 0/0
  7172 ;;		On exit  : 0/0
  7173 ;;		Unchanged: 0/0
  7174 ;; Data sizes:     COMMON   BANK0   BANK1   BANK3   BANK2
  7175 ;;      Params:         2       0       0       0       0
  7176 ;;      Locals:         0       0       0       0       0
  7177 ;;      Temps:          0       0       0       0       0
  7178 ;;      Totals:         2       0       0       0       0
  7179 ;;Total ram usage:        2 bytes
  7180 ;; Hardware stack levels used:    1
  7181 ;; This function calls:
  7182 ;;		Nothing
  7183 ;; This function is called by:
  7184 ;;		_Init
  7185 ;;		_Spi
  7186 ;;		_message1p
  7187 ;;		_message2p
  7188 ;;		_message1r
  7189 ;;		_message2r
  7190 ;;		_analog
  7191 ;;		_mic
  7192 ;;		_Forward
  7193 ;;		_Play_s
  7194 ;;		_erase
  7195 ;;		_g_erase
  7196 ;; This function uses a non-reentrant model
  7197 ;;
  7198                           psect	text747
  7199                           	file	"PR17B.c"
  7200                           	line	218
  7201                           	global	__size_of_tmr_delay
  7202  0022                     	__size_of_tmr_delay	equ	__end_of_tmr_delay-_tmr_delay
  7203                           	
  7204  0EA4                     _tmr_delay:	
  7205                           	opt	stack 4
  7206                           ; Regs used in _tmr_delay: [wreg+status,2+status,0]
  7207                           	line	219
  7208                           	
  7209  0EA4                     l2724:	
  7210                           ;PR17B.c: 219: for( ;lenght>0;lenght-=1)
  7211  0EA4  0871               	movf	((tmr_delay@lenght+1)),w
  7212  0EA5  0470               	iorwf	((tmr_delay@lenght)),w
  7213  0EA6  1D03               	skipz
  7214  0EA7  2EA9               	goto	u2641
  7215  0EA8  2EAA               	goto	u2640
  7216  0EA9                     u2641:
  7217  0EA9  2EAC               	goto	l2728
  7218  0EAA                     u2640:
  7219  0EAA  2EC5               	goto	l667
  7220                           	
  7221  0EAB                     l2726:	
  7222  0EAB  2EC5               	goto	l667
  7223                           	line	220
  7224                           	
  7225  0EAC                     l662:	
  7226                           	line	221
  7227                           	
  7228  0EAC                     l2728:	
  7229                           ;PR17B.c: 220: {
  7230                           ;PR17B.c: 221: TMR0=0;
  7231  0EAC  1283               	bcf	status, 5	;RP0=0, select bank0
  7232  0EAD  1303               	bcf	status, 6	;RP1=0, select bank0
  7233  0EAE  0181               	clrf	(1)	;volatile
  7234                           	line	222
  7235                           ;PR17B.c: 222: while(TMR0<195);
  7236  0EAF  2EB1               	goto	l2730
  7237                           	
  7238  0EB0                     l665:	
  7239  0EB0  2EB1               	goto	l2730
  7240                           	
  7241  0EB1                     l664:	
  7242                           	
  7243  0EB1                     l2730:	
  7244  0EB1  30C3               	movlw	(0C3h)
  7245  0EB2  0201               	subwf	(1),w	;volatile
  7246  0EB3  1C03               	skipc
  7247  0EB4  2EB6               	goto	u2651
  7248  0EB5  2EB7               	goto	u2650
  7249  0EB6                     u2651:
  7250  0EB6  2EB1               	goto	l2730
  7251  0EB7                     u2650:
  7252  0EB7  2EB8               	goto	l2732
  7253                           	
  7254  0EB8                     l666:	
  7255                           	line	219
  7256                           	
  7257  0EB8                     l2732:	
  7258  0EB8  3001               	movlw	low(01h)
  7259  0EB9  02F0               	subwf	(tmr_delay@lenght),f
  7260  0EBA  3000               	movlw	high(01h)
  7261  0EBB  1C03               	skipc
  7262  0EBC  03F1               	decf	(tmr_delay@lenght+1),f
  7263  0EBD  02F1               	subwf	(tmr_delay@lenght+1),f
  7264                           	
  7265  0EBE                     l2734:	
  7266  0EBE  0871               	movf	((tmr_delay@lenght+1)),w
  7267  0EBF  0470               	iorwf	((tmr_delay@lenght)),w
  7268  0EC0  1D03               	skipz
  7269  0EC1  2EC3               	goto	u2661
  7270  0EC2  2EC4               	goto	u2660
  7271  0EC3                     u2661:
  7272  0EC3  2EAC               	goto	l2728
  7273  0EC4                     u2660:
  7274  0EC4  2EC5               	goto	l667
  7275                           	
  7276  0EC5                     l663:	
  7277                           	line	224
  7278                           	
  7279  0EC5                     l667:	
  7280  0EC5  0008               	return
  7281                           	opt stack 0
  7282                           GLOBAL	__end_of_tmr_delay
  7283  0EC6                     	__end_of_tmr_delay:
  7284 ;; =============== function _tmr_delay ends ============
  7285                           
  7286                           	signat	_tmr_delay,4216
  7287                           	global	_uc_send_receive_spi
  7288                           psect	text748,local,class=CODE,delta=2
  7289                           global __ptext748
  7290  0DBB                     __ptext748:
  7291                           
  7292 ;; *************** function _uc_send_receive_spi *****************
  7293 ;; Defined at:
  7294 ;;		line 200 in file "PR17B.c"
  7295 ;; Parameters:    Size  Location     Type
  7296 ;;  uc_data         1    wreg     unsigned char 
  7297 ;; Auto vars:     Size  Location     Type
  7298 ;;  uc_data         1    0[COMMON] unsigned char 
  7299 ;; Return value:  Size  Location     Type
  7300 ;;                  1    wreg      unsigned char 
  7301 ;; Registers used:
  7302 ;;		wreg
  7303 ;; Tracked objects:
  7304 ;;		On entry : 0/0
  7305 ;;		On exit  : 0/0
  7306 ;;		Unchanged: 0/0
  7307 ;; Data sizes:     COMMON   BANK0   BANK1   BANK3   BANK2
  7308 ;;      Params:         0       0       0       0       0
  7309 ;;      Locals:         1       0       0       0       0
  7310 ;;      Temps:          0       0       0       0       0
  7311 ;;      Totals:         1       0       0       0       0
  7312 ;;Total ram usage:        1 bytes
  7313 ;; Hardware stack levels used:    1
  7314 ;; This function calls:
  7315 ;;		Nothing
  7316 ;; This function is called by:
  7317 ;;		_Init
  7318 ;;		_Spi
  7319 ;;		_Stand
  7320 ;;		_message1p
  7321 ;;		_message2p
  7322 ;;		_message1r
  7323 ;;		_message2r
  7324 ;;		_analog
  7325 ;;		_mic
  7326 ;;		_erase
  7327 ;;		_g_erase
  7328 ;; This function uses a non-reentrant model
  7329 ;;
  7330                           psect	text748
  7331                           	file	"PR17B.c"
  7332                           	line	200
  7333                           	global	__size_of_uc_send_receive_spi
  7334  0012                     	__size_of_uc_send_receive_spi	equ	__end_of_uc_send_receive_spi-_uc_send_receive_spi
  7335                           	
  7336  0DBB                     _uc_send_receive_spi:	
  7337                           	opt	stack 4
  7338                           ; Regs used in _uc_send_receive_spi: [wreg]
  7339                           ;uc_send_receive_spi@uc_data stored from wreg
  7340                           	line	203
  7341  0DBB  00F0               	movwf	(uc_send_receive_spi@uc_data)
  7342                           	
  7343  0DBC                     l2718:	
  7344                           ;PR17B.c: 203: SSPBUF = uc_data;
  7345  0DBC  0870               	movf	(uc_send_receive_spi@uc_data),w
  7346  0DBD  1283               	bcf	status, 5	;RP0=0, select bank0
  7347  0DBE  1303               	bcf	status, 6	;RP1=0, select bank0
  7348  0DBF  0093               	movwf	(19)	;volatile
  7349                           	line	206
  7350                           ;PR17B.c: 206: while(BF == 0);
  7351  0DC0  2DC1               	goto	l651
  7352                           	
  7353  0DC1                     l652:	
  7354                           	
  7355  0DC1                     l651:	
  7356  0DC1  1683               	bsf	status, 5	;RP0=1, select bank1
  7357  0DC2  1303               	bcf	status, 6	;RP1=0, select bank1
  7358  0DC3  1C14               	btfss	(1184/8)^080h,(1184)&7
  7359  0DC4  2DC6               	goto	u2631
  7360  0DC5  2DC7               	goto	u2630
  7361  0DC6                     u2631:
  7362  0DC6  2DC1               	goto	l651
  7363  0DC7                     u2630:
  7364  0DC7  2DC8               	goto	l2720
  7365                           	
  7366  0DC8                     l653:	
  7367                           	line	209
  7368                           	
  7369  0DC8                     l2720:	
  7370                           ;PR17B.c: 209: return SSPBUF;
  7371                           ;	Return value of _uc_send_receive_spi is never used
  7372  0DC8  1283               	bcf	status, 5	;RP0=0, select bank0
  7373  0DC9  1303               	bcf	status, 6	;RP1=0, select bank0
  7374  0DCA  0813               	movf	(19),w	;volatile
  7375  0DCB  2DCC               	goto	l654
  7376                           	
  7377  0DCC                     l2722:	
  7378                           	line	210
  7379                           	
  7380  0DCC                     l654:	
  7381  0DCC  0008               	return
  7382                           	opt stack 0
  7383                           GLOBAL	__end_of_uc_send_receive_spi
  7384  0DCD                     	__end_of_uc_send_receive_spi:
  7385 ;; =============== function _uc_send_receive_spi ends ============
  7386                           
  7387                           	signat	_uc_send_receive_spi,4217
  7388                           	global	_spi_initialize
  7389                           psect	text749,local,class=CODE,delta=2
  7390                           global __ptext749
  7391  0004                     __ptext749:
  7392                           
  7393 ;; *************** function _spi_initialize *****************
  7394 ;; Defined at:
  7395 ;;		line 173 in file "PR17B.c"
  7396 ;; Parameters:    Size  Location     Type
  7397 ;;		None
  7398 ;; Auto vars:     Size  Location     Type
  7399 ;;		None
  7400 ;; Return value:  Size  Location     Type
  7401 ;;		None               void
  7402 ;; Registers used:
  7403 ;;		None
  7404 ;; Tracked objects:
  7405 ;;		On entry : 0/0
  7406 ;;		On exit  : 0/0
  7407 ;;		Unchanged: 0/0
  7408 ;; Data sizes:     COMMON   BANK0   BANK1   BANK3   BANK2
  7409 ;;      Params:         0       0       0       0       0
  7410 ;;      Locals:         0       0       0       0       0
  7411 ;;      Temps:          0       0       0       0       0
  7412 ;;      Totals:         0       0       0       0       0
  7413 ;;Total ram usage:        0 bytes
  7414 ;; Hardware stack levels used:    1
  7415 ;; This function calls:
  7416 ;;		Nothing
  7417 ;; This function is called by:
  7418 ;;		_Init
  7419 ;; This function uses a non-reentrant model
  7420 ;;
  7421                           psect	text749
  7422                           	file	"PR17B.c"
  7423                           	line	173
  7424                           	global	__size_of_spi_initialize
  7425  000F                     	__size_of_spi_initialize	equ	__end_of_spi_initialize-_spi_initialize
  7426                           	
  7427  0004                     _spi_initialize:	
  7428                           	opt	stack 6
  7429                           ; Regs used in _spi_initialize: []
  7430                           	line	175
  7431                           	
  7432  0004                     l2716:	
  7433                           ;PR17B.c: 175: TRISC5 = 0;
  7434  0004  1683               	bsf	status, 5	;RP0=1, select bank1
  7435  0005  1303               	bcf	status, 6	;RP1=0, select bank1
  7436  0006  1287               	bcf	(1085/8)^080h,(1085)&7
  7437                           	line	178
  7438                           ;PR17B.c: 178: SMP = 0;
  7439  0007  1394               	bcf	(1191/8)^080h,(1191)&7
  7440                           	line	181
  7441                           ;PR17B.c: 181: CKE = 0;
  7442  0008  1314               	bcf	(1190/8)^080h,(1190)&7
  7443                           	line	182
  7444                           ;PR17B.c: 182: CKP = 1;
  7445  0009  1283               	bcf	status, 5	;RP0=0, select bank0
  7446  000A  1303               	bcf	status, 6	;RP1=0, select bank0
  7447  000B  1614               	bsf	(164/8),(164)&7
  7448                           	line	185
  7449                           ;PR17B.c: 185: SSPM3 = 0;
  7450  000C  1194               	bcf	(163/8),(163)&7
  7451                           	line	186
  7452                           ;PR17B.c: 186: SSPM2 = 0;
  7453  000D  1114               	bcf	(162/8),(162)&7
  7454                           	line	187
  7455                           ;PR17B.c: 187: SSPM1 = 0;
  7456  000E  1094               	bcf	(161/8),(161)&7
  7457                           	line	188
  7458                           ;PR17B.c: 188: SSPM0 = 0;
  7459  000F  1014               	bcf	(160/8),(160)&7
  7460                           	line	191
  7461                           ;PR17B.c: 191: WCOL = 0;
  7462  0010  1394               	bcf	(167/8),(167)&7
  7463                           	line	194
  7464                           ;PR17B.c: 194: SSPEN = 1;
  7465  0011  1694               	bsf	(165/8),(165)&7
  7466                           	line	195
  7467                           	
  7468  0012                     l648:	
  7469  0012  0008               	return
  7470                           	opt stack 0
  7471                           GLOBAL	__end_of_spi_initialize
  7472  0013                     	__end_of_spi_initialize:
  7473 ;; =============== function _spi_initialize ends ============
  7474                           
  7475                           	signat	_spi_initialize,88
  7476                           psect	text750,local,class=CODE,delta=2
  7477                           global __ptext750
  7478  0000                     __ptext750:
  7479                           	global	btemp
  7480  007E                     	btemp set 07Eh
  7481                           
  7482                           	DABS	1,126,2	;btemp
  7483                           	global	wtemp0
  7484  007E                     	wtemp0 set btemp


HI-TECH Software PICC Macro Assembler V9.80 build 6738 
Symbol Table                                                                                   Thu Jun 28 10:39:21 2012

        ?_uc_send_receive_spi 0070                             pc 0002                            _BF 04A0  
                          fsr 0004                           l700 0675                           l701 065C  
                         l710 06A0                           l702 067C                           l630 06FA  
                         l711 0690                           l703 0666                           l631 074C  
                         l800 03CE                           l720 0792                           l712 06A2  
                         l704 06A1                           l640 074D                           l632 0724  
                         l801 03B3                           l721 0797                           l713 06A3  
                         l705 0684                           l641 074E                           l633 0724  
                         l625 06DD                           l810 03D0                           l802 03B3  
                         l730 07DC                           l722 07C5                           l714 06A3  
                         l706 0684                           l642 074E                           l634 0729  
                         l626 071C                           l651 0DC1                           l803 03B8  
                         l731 07F4                           l723 07A2                           l707 0689  
                         l635 0743                           l627 06E5                           l652 0DC1  
                         l900 0FFF                           l804 03C8                           l732 07DD  
                         l724 07CF                           l708 069B                           l636 072A  
                         l628 06E5                           l653 0DC8                           l645 056A  
                         l813 024D                           l901 0FFF                           l741 02F6  
                         l805 03B9                           l733 07FC                           l725 07AC  
                         l717 078A                           l709 068A                           l637 074B  
                         l629 06EA                           l654 0DCC                           l662 0EAC  
                         l670 0E0E                           l750 034D                           l742 032A  
                         l806 03CD                           l734 07E3                           l726 07B6  
                         l718 07CF                           l822 0F65                           l638 0730  
                         l663 0EC5                           l751 0332                           l743 02FE  
                         l831 03F8                           l807 03BF                           l727 07FD  
                         l735 07E9                           l719 0792                           l639 0736  
                         l648 0012                           l664 0EB1                           l680 0E44  
                         l816 01D9                           l904 0FB1                           l760 034F  
                         l752 0332                           l744 02FE                           l840 0455  
                         l832 042C                           l808 03CF                           l736 07FE  
                         l728 07D7                           l665 0EB0                           l657 0ED0  
                         l673 0E27                           l681 0E44                           l825 0E82  
                         l905 0FB1                           l753 0337                           l745 0303  
                         l841 0434                           l833 0400                           l809 03D0  
                         l737 07FF                           l729 07D7                           l666 0EB8  
                         l658 0EF5                           l690 0F25                           l906 0FB2  
                         l754 0347                           l746 0325                           l850 0457  
                         l842 0434                           l834 0400                           l738 07FF  
                         l770 04B9                           l667 0EC5                           l659 0EF5  
                         l691 0F26                           l907 0FB2                           l755 0338  
                         l747 030E                           l843 0439                           l835 0405  
                         l819 05FE                           l771 04A3                           l763 0481  
                         l676 0EA3                           l684 0DE0                           l692 0F26  
                         l828 0E63                           l860 0106                           l756 034C  
                         l748 032A                           l844 044F                           l836 0427  
                         l780 04DF                           l772 04DE                           l764 04B9  
                         l861 012C                           l853 00F5                           l757 033E  
                         l749 0318                           l845 043A                           l837 0410  
                         l781 04E0                           l773 04C1                           l765 0489  
                         l870 0162                           l862 012C                           l854 00F6  
                         l758 034E                           l846 0454                           l838 042C  
                         l782 04E0                           l774 04C1                           l766 0489  
                         l679 0E37                           l687 0F0E                           l871 0164  
                         l863 0132                           l855 00F6                           l759 034F  
                         l847 0443                           l839 041A                           l791 0377  
                         l775 04C6                           l767 048E                           l695 0644  
                         _CKE 04A6                           l688 0EF7                           l872 0165  
                         l864 0163                           l856 00FC                           l880 0282  
                         l848 0456                           l792 03AB                           l776 04D8  
                         l768 04B2                           l696 067C                           l785 00F4  
                         l873 0165                           l865 0138                           l857 012B  
                         l881 02A4                           l849 0457                           l793 037F  
                         l777 04C7                           l769 0499                           l697 064C  
                         l866 0138                           l858 0102                           l890 02B7  
                         l882 028D                           l794 037F                           l778 04DD  
                         l698 064C                           l867 013C                           l859 0102  
                         l891 02CB                           l883 02A9                           l795 0384  
                         l779 04CD                           l699 0651                           l788 0083  
                         l868 0161                           l892 02BD                           l884 0297  
                         l876 0275                           l796 03A6                           l869 0161  
                         l893 02CD                           l885 02CC                           l877 02A9  
                         l797 038F                           l894 02CE                           l886 02B1  
                         l878 027D                           l798 03AB                           l895 02CE  
                         l887 02B1                           l879 027D                           l799 0399  
                         l888 02B6                           l889 02C6                           l898 0FFE  
                         _CKP 00A4                           l899 0FFE                           _RA0 0028  
                         _RC0 0038                           _RE1 0049                           _RD3 0043  
                         _RE2 004A                           _RD4 0044                           _RD5 0045  
                         _RD6 0046                           _RD7 0047                           _PS0 0408  
                         _PS1 0409                           _PS2 040A                           _PSA 040B  
                         _SPI 1E1F                           _SMP 04A7                           _STD 1E12  
                         _Spi 05FF                           _mic 0F27                           _msg 002D  
                         fsr0 0004                           indf 0000               send_config@data 0078  
                        ?_Spi 0070                          l3000 0265                          l3010 0286  
                        l3002 026B                          l3020 02B0                          l3012 028D  
                        l3004 0275                          l3100 0446                          l3022 02B7  
                        l3014 0297                          l3006 027C                          l3030 02CF  
                        l3102 044B                          l3110 0358                          l3024 02BD  
                        l3016 02A0                          l3008 0282                          l3040 02EC  
                        l3032 02D2                          l3104 044F                          l3120 037E  
                        l3112 035E                          l3200 0F42                          l3026 02C2  
                        l3018 02A4                          l3050 030E                          l3042 02F6  
                        l3034 02D7                          l3130 03A2                          l3122 0384  
                        l3114 0367                          l3106 0350                          l3202 0F51  
                        l3210 056E                          l3028 02C6                          l3060 0338  
                        l3052 0318                          l3044 02FD                          l3036 02DD  
                        l3140 03C4                          l3132 03A6                          l3124 0388  
                        l3116 036D                          l3108 0353                          l3204 0F5D  
                        l3220 05B0                          l3212 057A                          l3300 0651  
                        l3062 033E                          l3054 0321                          l3046 0303  
                        l3038 02E6                          l3070 03D4                          l3142 03C8  
                        l3134 03B2                          l3126 038F                          l3118 0377  
                        l3150 075D                          l3206 0F60                          l3230 05ED  
                        l3222 05BC                          l3214 0586                          l3310 0675  
                        l3302 0655                          l3064 0343                          l3056 0325  
                        l3048 0307                          l3080 03F8                          l3072 03D9  
                        l3136 03B9                          l3128 0399                          l3160 077A  
                        l3152 0763                          l3144 0751                          l3232 05F9  
                        l3224 05BF                          l3216 0595                          l3208 056B  
                        l3240 0468                          l3320 069B                          l3312 0683  
                        l3304 065C                          l3066 0347                          l3058 0331  
                        l3090 041A                          l3082 03FF                          l3074 03DF  
                        l3138 03BF                          l3170 079B                          l3162 0780  
                        l3154 0766                          l3146 0756                          l3226 05CC  
                        l3218 05A1                          l3250 048E                          l3242 0471  
                        l3234 0458                          l3314 068A                          l3306 0666  
                        l3330 06BB                          l3322 06A4                          l3092 0423  
                        l3084 0405                          l3076 03E8                          l3068 03D1  
                        l3172 07A2                          l3180 07C5                          l3164 078A  
                        l3156 076B                          l3148 0757                          l3228 05D8  
                        l3260 04B2                          l3252 0492                          l3244 0477  
                        l3236 045D                          l3316 0690                          l3308 066F  
                        l3340 06EA                          l3332 06C4                          l3324 06AB  
                        l3094 0427                          l3086 0409                          l3078 03EE  
                        l3190 07EE                          l3182 07D6                          l3174 07AC  
                        l3166 0791                          l3158 0771                          l3270 04D8  
                        l3262 04C0                          l3254 0499                          l3246 0481  
                        l3238 0462                          l3318 0695                          l3350 0712  
                        l3342 06EE                          l3334 06CA                          l3326 06B0  
                        l2720 0DC8                          l2800 051A                          l3096 0433  
                        l3088 0410                          l3184 07DD                          l3192 07F4  
                        l3176 07B6                          l3168 0797                          l3264 04C7  
                        l3256 04A3                          l3248 0488                          l3280 0611  
                        l3272 05FF                          l3360 0736                          l3344 06F4  
                        l3352 071C                          l3336 06DD                          l3328 06B5  
                        l2722 0DCC                          l2730 0EB1                          l2810 0525  
                        l2802 051B                          l3098 043D                          l3186 07E3  
                        l3178 07BF                          l3194 0F27                          l3266 04CD  
                        l3258 04AC                          l3290 062B                          l3282 0614  
                        l3274 0604                          l3362 073B                          l3354 0723  
                        l3346 06FA                          l3338 06E4                          l2716 0004  
                        l2732 0EB8                          l2724 0EA4                          l2740 0ED0  
                        l2820 0540                          l2812 052B                          l2804 051C  
                        l2900 00BF                          l3188 07E9                          l3196 0F2A  
                        l3268 04D2                          l3292 0634                          l3284 061D  
                        l3276 0605                          l3356 072A                          l3364 0743  
                        l3348 0700                          l2718 0DBC                          l2734 0EBE  
                        l2726 0EAB                          l2742 0E83                          l2750 0DFA  
                        l2830 055B                          l2822 0546                          l2814 0531  
                        l2806 051D                          l2910 00EB                          l2902 00C8  
                        l3198 0F36                          l3294 063A                          l3286 0620  
                        l3278 060B                          l3358 0730                          l2728 0EAC  
                        l2736 0EC6                          l2744 0E86                          l2752 0DFC  
                        l2760 0E15                          l2832 0561                          l2824 054C  
                        l2816 0534                          l2808 0522                          l2840 0E2F  
                        l2904 00D7                          l2920 01AA                          l2912 0166  
                        l3296 0644                          l3288 0625                          l2738 0ECF  
                        l2746 0E93                          l2754 0E09                          l2762 0E22  
                        l2834 0567                          l2826 054F                          l2818 053D  
                        l2770 04E9                          l2842 0E37                          l2850 0F07  
                        l2906 00E0                          l2930 01D6                          l2922 01B9  
                        l2914 0169                          l3298 064B                          l2748 0DF7  
                        l2756 0E10                          l2828 0558                          l2780 04F5  
                        l2772 04EC                          l2764 04E1                          l2836 0DCD  
                        l2844 0E3C                          l2852 0F0E                          l2860 0E4E  
                        l2908 00E5                          l2924 01C2                          l2916 0193  
                        l2940 021E                          l2932 01DA                          l2758 0E13  
                        l2790 0504                          l2782 04F6                          l2774 04ED  
                        l2766 04E6                          l2838 0E29                          l2854 0F14  
                        l2846 0EF6                          l2862 0E57                          l2870 0E6D  
                        l2926 01C7                          l2918 01A1                          l2950 024A  
                        l2942 022D                          l2934 01DD                          l2792 050A  
                        l2784 04F7                          l2776 04EE                          l2768 04E8  
                        l2848 0EF7                          l2864 0E60                          l2856 0E45  
                        l2872 0E76                          l2880 0040                          l2928 01CD  
                        l2944 0236                          l2936 0207                          l2960 0137  
                        l2952 0101                          ?_mic 0070                          l2794 0510  
                        l2786 04F8                          l2778 04F2                          l2858 0E48  
                        l2874 0E7F                          l2866 0E64                          l2890 0074  
                        l2882 004E                          l2946 023B                          l2938 0215  
                        l2962 013D                          l2954 0107                          l2970 0F69  
                        l2796 0516                          l2788 04FE                          l2868 0E67  
                        l2892 007A                          l2884 0057                          l2876 0013  
                        l2948 0241                          l2964 0148                          l2956 0112  
                        l2972 0F75                          l2980 0FB3                          l2798 0519  
                        l2886 0066                          l2878 0016                          l2894 0084  
                        l2966 0151                          l2958 011B                          l2974 0F81  
                        l2990 0FF4                          l2982 0FB6                          l2888 006F  
                        l2896 0087                          l2976 0F90                          l2968 0F66  
                        l2984 0FC2                          l2992 024E                          l2898 00B1  
                        l2978 0FA7                          l2986 0FCE                          l2994 0251  
                        l2988 0FDD                          l2996 0256                          l2998 025C  
                        STR_1 1F5A                          STR_2 1EDF                          STR_3 1F4E  
                        STR_4 1F66                          STR_5 1F92                          STR_6 1F66  
                        STR_7 1F4E                          STR_8 1F87                          STR_9 1F06  
                        _T0CS 040D                          u3000 048D                          u3001 048C  
                        u3010 04BF                          u3011 04BE                          u3020 04C5  
                        u3100 0722                          u3021 04C4                          u3101 0721  
                        u3030 064A                          u3110 0728                          u3031 0649  
                        u3111 0727                          u3040 0650                          u3041 064F  
                        u3050 0682                          u3051 0681                          u3060 0688  
                        u3061 0687                          u3070 06E3                          u3071 06E2  
                        u3080 06E9                          u3081 06E8                          u3090 06F4  
                        u3091 06F3                          u2700 0E2F                          u2701 0E2E  
                        u2630 0DC7                          u2710 0F14                          u2631 0DC6  
                        u2711 0F13                          u2640 0EAA                          u2720 0F24  
                        u2800 0281                          u2641 0EA9                          u2721 0F23  
                        u2801 0280                          u2650 0EB7                          u2730 00FC  
                        u2810 02AF                          u2651 0EB6                          u2731 00FB  
                        u2811 02AE                          u2660 0EC4                          u2740 0100  
                        u2820 02B5                          u2900 0438                          u2661 0EC3  
                        u2741 00FF                          u2821 02B4                          u2901 0437  
                        u2670 0ECE                          u2750 0106                          u2830 02FC  
                        u2910 037D                          u2671 0ECD                          u2751 0105  
                        u2831 02FB                          u2911 037C                          u2680 0EEC  
                        u2760 0132                          u2840 0302                          u2920 0383  
                        u2761 0131                          u2841 0301                          u2921 0382  
                        u2690 0EF4                          u2770 0136                          u2850 0330  
                        u2930 03B1                          u2691 0EF3                          u2771 0135  
                        u2851 032F                          u2931 03B0                          u2780 013C  
                        u2860 0336                          u2940 03B7                          u2685 0EDF  
                        u2781 013B                          u2861 0335                          u2941 03B6  
                        u2686 0EE0                          u2790 027B                          u2870 03FE  
                        u2950 0790                          u2687 0EE5                          u2791 027A  
                        u2871 03FD                          u2951 078F                          u2688 0EE6  
                        u2880 0404                          u2960 0796                          u2689 0EEB  
                        u2881 0403                          u2961 0795                          u2890 0432  
                        u2970 07D5                          u2891 0431                          u2971 07D4  
                        u2980 07DB                          u2981 07DA                          u2990 0487  
                        u2991 0486                          _TMR0 0001                          _WCOL 00A7  
                        _Init 04E1                          Spi@i 002A                          _Play 02CF  
                        _main 06A4                          _mode 0020                          btemp 007E  
                lcd_goto@data 007A                          start 0000         ??_uc_send_receive_spi 0070  
             __end_of_Forward 0E83                         ??_Spi 0029                         ??_mic 007D  
                       ?_Init 0070               tmr_delay@lenght 0070                         ?_Play 0070  
                       ?_main 0070                         STR_10 1F1E                         STR_11 1F2A  
                       STR_12 1FA5                         STR_20 1ED1                         STR_21 1E73  
                       STR_13 1E63                         STR_22 1F71                         STR_14 1EF9  
                       STR_30 1E83                         STR_15 1E63                         STR_31 1E73  
                       STR_23 1ED1                         STR_40 1E43                         STR_32 1F71  
                       STR_16 1FBD                         STR_24 1E32                         STR_25 1F71  
                       STR_33 1E83                         STR_41 1EA3                         STR_17 1EA3  
                       STR_34 1E32                         STR_26 1FA5                         STR_50 1FB6  
                       STR_42 1F7C                         STR_18 1E43                         STR_35 1F71  
                       STR_19 1EA3                         STR_27 1EEC                         STR_43 1EC2  
                       STR_51 1EB3                         STR_28 1EF9                         STR_44 1FAE  
                       STR_36 1F36                         STR_29 1EEC                         STR_45 1F42  
                       STR_37 1F12                         STR_38 1FBD                         STR_46 1F9C  
                       STR_39 1EA3                         STR_47 1E53                         STR_48 1E93  
                       STR_49 1E53                         _ERASE 1E2A                         _PORTA 0005  
                       _PORTB 0006                         _PORTD 0008                         _PORTE 0009  
                       _SSPM0 00A0                         _SSPM1 00A1                         _SSPM2 00A2  
                       _SSPM3 00A3                         _TRISA 0085                         _TRISB 0086  
                       _TRISC 0087                         _TRISD 0088                         _TRISE 0089  
                       _SSPEN 00A5               __end_of_g_erase 0FB3                         _Erase 024E  
                       Play@i 007C               __end_of_e_pulse 0EA4               __end_of_lcd_clr 0DE1  
                       _Stand 0751                         _delay 0EC6                         _erase 0FB3  
                       main@j 002C                         pclath 000A                         status 0003  
                       wtemp0 007E                  __end_of_Init 056B                  __end_of_Play 0350  
                __end_of_main 0751                        ??_Init 0079                        ??_Play 007B  
            __end_of_Record_s 0166                        ??_main 002B                        ?_Erase 0070  
                      ?_Stand 0070                        ?_delay 0070                  ?_send_config 0070  
                      _ADCON1 009F                        ?_erase 0070                  ?_send_string 0079  
                      Erase@i 007C                        _TRISC5 043D                        _SSPBUF 0013  
                   ??_Forward 007B                        _Record 0458                        _Play_s 0E45  
                      _Option 03D1                        Stand@i 0028              __end_of_lcd_goto 0E45  
                      _analog 056B                     ??_g_erase 007B              __end_of_location 03D1  
                   ??_e_pulse 0078                        _status 002F                     ??_lcd_clr 0079  
            ??_spi_initialize 0070                 __end_of_Erase 02CF                __pcstackCOMMON 0070  
               __end_of_Stand 0800                  __pidataBANK0 0DA2                 __end_of_delay 0EF6  
               __end_of_erase 1000                       ??_Erase 007B                       ??_Stand 007D  
                     ??_delay 0074                       ??_erase 007B                    __pbssBANK0 002D  
                   ?_Record_s 0070                       ?_Record 0070            __size_of_message1p 0071  
          __size_of_message2p 0071            __size_of_message1r 0074            __size_of_message2r 0074  
                     ?_Play_s 0070                    __pmaintext 06A4                       ?_Option 0070  
                     ?_analog 0070            __size_of_send_char 0019            __size_of_tmr_delay 0022  
                   ?_lcd_goto 0070          __size_of_send_config 0019                     ?_location 0070  
                     Record@i 0028   __end_of_uc_send_receive_spi 0DCD          __size_of_send_string 0031  
                  ??_Record_s 007B                       _Forward 0E64               __size_of_Record 0089  
             __size_of_Play_s 001F                       Option@i 007C               __size_of_Option 0087  
             __size_of_analog 0094                       _g_erase 0F66                       _e_pulse 0E83  
                     _lcd_clr 0DCD                  __size_of_Spi 00A5                  __size_of_mic 003F  
           __end_of_message1p 00F5             __end_of_message2p 0084             __end_of_message1r 024E  
           __end_of_message2r 01DA                       _pointer 002E                    ??_lcd_goto 0079  
        end_of_initialization 0DF2             __end_of_send_char 0E28                       init_ram 0DAE  
                  ??_location 007B             __end_of_tmr_delay 0EC6                  __pstringtext 1E00  
               send_char@data 0078                __end_of_Record 04E1                __end_of_Play_s 0E64  
              __end_of_Option 0458                __end_of_analog 05FF           start_initialization 0DE1  
                 __end_of_Spi 06A4                   __end_of_mic 0F66                      ??_Record 007D  
                    ??_Play_s 007B                      ??_Option 007B             __size_of_Record_s 0071  
                    ??_analog 007D                   __pdataBANK0 0020                 __pcstackBANK0 0028  
           __size_of_lcd_goto 001D                      ?_Forward 0070       __size_of_spi_initialize 000F  
           __size_of_location 0081                     __ptext721 05FF                     __ptext730 0FB3  
                   __ptext722 0458                     __ptext731 0F66                     __ptext723 056B  
                   __ptext740 0E28                     __ptext732 00F5                     __ptext724 0F27  
                   __ptext741 0DCD                     __ptext733 01DA                     __ptext725 0751  
                   __ptext750 0000                     __ptext742 04E1                     __ptext734 0166  
                   __ptext726 0350                     __ptext743 0E0F                     __ptext735 0084  
                   __ptext727 03D1                     __ptext744 0DF6                     __ptext736 0013  
                   __ptext728 02CF                     __ptext745 0E83                     __ptext737 0E64  
                   __ptext729 024E                     __ptext746 0EC6                     __ptext738 0E45  
                   __ptext747 0EA4                     __ptext739 0EF6                     __ptext748 0DBB  
                   __ptext749 0004                      ?_g_erase 0070                      ?_e_pulse 0070  
                    ?_lcd_clr 0070                __size_of_Erase 0081                __size_of_Stand 00AF  
               ??_send_config 0078                __size_of_delay 0030                __size_of_erase 004D  
                   delay@data 0070                     _message1p 0084                     _message2p 0013  
                   _message1r 01DA                     _message2r 0166                 ??_send_string 007B  
                   _send_char 0E0F  __size_of_uc_send_receive_spi 0012                     _tmr_delay 0EA4  
                 __stringbase 1E12                    ?_message1p 0070                    ?_message1r 0070  
                  ?_message2p 0070                    ?_message2r 0070           __end_of_send_config 0E0F  
                  ?_send_char 0070                      _Record_s 00F5    uc_send_receive_spi@uc_data 0070  
                send_string@s 0079              __size_of_Forward 001F           __end_of_send_string 0F27  
                   init_fetch 0DAA                     location@i 007C                    ?_tmr_delay 0070  
            __size_of_g_erase 004D              __size_of_e_pulse 0021              __size_of_lcd_clr 0014  
                    _lcd_goto 0E28                 __size_of_Init 008A                 __size_of_Play 0081  
               __size_of_main 00AD                      _location 0350                _spi_initialize 0004  
                 _send_config 0DF6                   ??_message1p 007B                   ??_message1r 007B  
                 ??_message2p 007B                   ??_message2r 007B                   _send_string 0EF6  
      __end_of_spi_initialize 0013                   ??_send_char 0078                     stringcode 1E0A  
                 ??_tmr_delay 0072                      stringtab 1E00           _uc_send_receive_spi 0DBB  
             ?_spi_initialize 0070  
