HI-TECH Software C Compiler 

Linker command line:

--edf=C:\Program Files (x86)\HI-TECH Software\PICC\9.80\dat\en_msgs.txt -cs \
  -h+dist/default/production\PR_17___B.X.production.sym -z -Q16F877A \
  -ol.obj -Mdist/default/production/PR_17___B.X.production.map -E1 \
  -ACONST=00h-0FFhx32 -ACODE=00h-07FFhx4 -ASTRCODE=00h-01FFFh \
  -AENTRY=00h-0FFhx32 -ASTRING=00h-0FFhx32 -ABANK0=020h-06Fh \
  -ABANK1=0A0h-0EFh -ABANK2=0110h-016Fh -ABANK3=0190h-01EFh \
  -ARAM=020h-06Fh,0A0h-0EFh,0110h-016Fh,0190h-01EFh \
  -AABS1=020h-07Fh,0A0h-0EFh,0110h-016Fh,0190h-01EFh -ACOMMON=070h-07Fh \
  -ASFR0=00h-01Fh -ASFR1=080h-09Fh -ASFR2=0100h-010Fh -ASFR3=0180h-018Fh \
  -preset_vec=00h,intentry,init,end_init -ppowerup=CODE -pfunctab=CODE \
  -ACONFIG=02007h-02007h -pconfig=CONFIG -DCONFIG=2 -AIDLOC=02000h-02003h \
  -pidloc=IDLOC -DIDLOC=2 -AEEDATA=00h-0FFh/02100h -peeprom_data=EEDATA \
  -DEEDATA=2 -DCODE=2 -DSTRCODE=2 -DSTRING=2 -DCONST=2 -DENTRY=2 -k \
  C:\Users\HATAKE~1\AppData\Local\Temp\s18jk.obj \
  dist/default/production\PR_17___B.X.production.obj 

Object code version is 3.10

Machine type is 16F877A



                Name                               Link     Load   Length Selector   Space Scale
C:\Users\HATAKE~1\AppData\Local\Temp\s18jk.obj
                end_init                              0        0        3        0       0
dist/default/production\PR_17___B.X.production.obj
                config                             2007     2007        1     400E       0
                text749                               4        4        F        8       0
                text748                             DBB      DBB       12     1B76       0
                text747                             EA4      EA4       22     1D48       0
                text746                             EC6      EC6       30     1D8C       0
                text745                             E83      E83       21     1D06       0
                text744                             DF6      DF6       19     1BEC       0
                text743                             E0F      E0F       19     1C1E       0
                text742                             4E1      4E1       8A      9C2       0
                text741                             DCD      DCD       14     1B9A       0
                text740                             E28      E28       1D     1C50       0
                text739                             EF6      EF6       31     1DEC       0
                text738                             E45      E45       1F     1C8A       0
                text737                             E64      E64       1F     1CC8       0
                text736                              13       13       71       26       0
                text735                              84       84       71      108       0
                text734                             166      166       74      2CC       0
                text733                             1DA      1DA       74      3B4       0
                text732                              F5       F5       71      1EA       0
                text731                             F66      F66       4D     1ECC       0
                text730                             FB3      FB3       4D     1F66       0
                text729                             24E      24E       81      49C       0
                text728                             2CF      2CF       81      59E       0
                text727                             3D1      3D1       87      7A2       0
                text726                             350      350       81      6A0       0
                text725                             751      751       AF      EA2       0
                text724                             F27      F27       3F     1E4E       0
                text723                             56B      56B       94      AD6       0
                text722                             458      458       89      8B0       0
                text721                             5FF      5FF       A5      BFE       0
                maintext                            6A4      6A4       AD      D48       0
                cstackBANK0                          28       28        5       20       1
                cstackCOMMON                         70       70        E       70       1
                inittext                            DAA      DAA       11     1B54       0
                dataBANK0                            20       20        8       20       1
                bssBANK0                             2D       2D        3       20       1
                cinit                               DE1      DE1       15     1BC2       0
                stringtext                         1E00     1E00      1C4       3C       0
                idataBANK0                          DA2      DA2        8     1B44       0

TOTAL           Name                               Link     Load   Length     Space
        CLASS   CONST          

        CLASS   CODE           
                end_init                              0        0        3         0
                text749                               4        4        F         0
                text748                             DBB      DBB       12         0
                text747                             EA4      EA4       22         0
                text746                             EC6      EC6       30         0
                text745                             E83      E83       21         0
                text744                             DF6      DF6       19         0
                text743                             E0F      E0F       19         0
                text742                             4E1      4E1       8A         0
                text741                             DCD      DCD       14         0
                text740                             E28      E28       1D         0
                text739                             EF6      EF6       31         0
                text738                             E45      E45       1F         0
                text737                             E64      E64       1F         0
                text736                              13       13       71         0
                text735                              84       84       71         0
                text734                             166      166       74         0
                text733                             1DA      1DA       74         0
                text732                              F5       F5       71         0
                text731                             F66      F66       4D         0
                text730                             FB3      FB3       4D         0
                text729                             24E      24E       81         0
                text728                             2CF      2CF       81         0
                text727                             3D1      3D1       87         0
                text726                             350      350       81         0
                text725                             751      751       AF         0
                text724                             F27      F27       3F         0
                text723                             56B      56B       94         0
                text722                             458      458       89         0
                text721                             5FF      5FF       A5         0
                maintext                            6A4      6A4       AD         0
                inittext                            DAA      DAA       11         0
                cinit                               DE1      DE1       15         0
                idataBANK0                          DA2      DA2        8         0

        CLASS   STRCODE        
                stringtext                         1E00     1E00      1C4         0

        CLASS   ENTRY          

        CLASS   STRING         

        CLASS   BANK0          
                cstackBANK0                          28       28        5         1
                dataBANK0                            20       20        8         1
                bssBANK0                             2D       2D        3         1

        CLASS   BANK1          

        CLASS   BANK2          

        CLASS   BANK3          

        CLASS   RAM            

        CLASS   ABS1           
                abs_s1                               7E       7E        2         1

        CLASS   COMMON         
                cstackCOMMON                         70       70        E         1

        CLASS   SFR0           

        CLASS   SFR1           

        CLASS   SFR2           

        CLASS   SFR3           

        CLASS   CONFIG         
                config                             2007     2007        1         0

        CLASS   IDLOC          

        CLASS   EEDATA         



SEGMENTS        Name                           Load    Length   Top    Selector   Space  Class     Delta

                reset_vec                      000000  000003  000003         0       0  CODE        2
                text749                        000004  00000F  000013         8       0  CODE        2
                dataBANK0                      000020  000010  000030        20       1  BANK0       1
                text736                        000013  000071  000084        26       0  CODE        2
                cstackCOMMON                   000070  00000E  00007E        70       1  COMMON      1
                text735                        000084  000071  0000F5       108       0  CODE        2
                text732                        0000F5  000071  000166       1EA       0  CODE        2
                text734                        000166  000074  0001DA       2CC       0  CODE        2
                text733                        0001DA  000074  00024E       3B4       0  CODE        2
                text729                        00024E  000081  0002CF       49C       0  CODE        2
                text728                        0002CF  000081  000350       59E       0  CODE        2
                text726                        000350  000081  0003D1       6A0       0  CODE        2
                text727                        0003D1  000087  000458       7A2       0  CODE        2
                text722                        000458  000089  0004E1       8B0       0  CODE        2
                text742                        0004E1  00008A  00056B       9C2       0  CODE        2
                text723                        00056B  000094  0005FF       AD6       0  CODE        2
                text721                        0005FF  0000A5  0006A4       BFE       0  CODE        2
                maintext                       0006A4  0000AD  000751       D48       0  CODE        2
                text725                        000751  0000AF  000800       EA2       0  CODE        2
                idataBANK0                     000DA2  000008  000DAA      1B44       0  CODE        2
                inittext                       000DAA  000011  000DBB      1B54       0  CODE        2
                text748                        000DBB  000012  000DCD      1B76       0  CODE        2
                text741                        000DCD  000014  000DE1      1B9A       0  CODE        2
                cinit                          000DE1  000015  000DF6      1BC2       0  CODE        2
                text744                        000DF6  000019  000E0F      1BEC       0  CODE        2
                text743                        000E0F  000019  000E28      1C1E       0  CODE        2
                text740                        000E28  00001D  000E45      1C50       0  CODE        2
                text738                        000E45  00001F  000E64      1C8A       0  CODE        2
                text737                        000E64  00001F  000E83      1CC8       0  CODE        2
                text745                        000E83  000021  000EA4      1D06       0  CODE        2
                text747                        000EA4  000022  000EC6      1D48       0  CODE        2
                text746                        000EC6  000030  000EF6      1D8C       0  CODE        2
                text739                        000EF6  000031  000F27      1DEC       0  CODE        2
                text724                        000F27  00003F  000F66      1E4E       0  CODE        2
                text731                        000F66  00004D  000FB3      1ECC       0  CODE        2
                text730                        000FB3  00004D  001000      1F66       0  CODE        2
                stringtext                     001E00  0001C4  001FC4        3C       0  STRCODE     2
                config                         002007  000001  002008      400E       0  CONFIG      2


UNUSED ADDRESS RANGES

        Name                Unused          Largest block    Delta
        BANK0            0030-006F             40           1
        BANK1            00A0-00EF             50           1
        BANK2            0110-016F             60           1
        BANK3            0190-01EF             60           1
        CODE             0003-0003              1           2
                         0800-0DA1            5A2
                         1000-1DFF            800
                         1FC4-1FFF             3C
        CONST            0003-0003              1           2
                         0800-0DA1            100
                         1000-1DFF            100
                         1FC4-1FFF             3C
        EEDATA           2100-21FF            100           2
        ENTRY            0003-0003              1           2
                         0800-0DA1            100
                         1000-1DFF            100
                         1FC4-1FFF             3C
        IDLOC            2000-2003              4           2
        RAM              0030-006F             40           1
                         00A0-00EF             50
                         0110-016F             60
                         0190-01EF             60
        SFR0             0000-001F             20           1
        SFR1             0080-009F             20           1
        SFR2             0100-010F             10           1
        SFR3             0180-018F             10           1
        STRCODE          0003-0003              1           2
                         0800-0DA1            5A2
                         1000-1DFF            E00
                         1FC4-1FFF             3C
        STRING           0003-0003              1           2
                         0800-0DA1            100
                         1000-1DFF            100
                         1FC4-1FFF             3C

                                  Symbol Table

??_Erase                      cstackCOMMON 007B
??_Forward                    cstackCOMMON 007B
??_Init                       cstackCOMMON 0079
??_Option                     cstackCOMMON 007B
??_Play                       cstackCOMMON 007B
??_Play_s                     cstackCOMMON 007B
??_Record                     cstackCOMMON 007D
??_Record_s                   cstackCOMMON 007B
??_Spi                        cstackBANK0  0029
??_Stand                      cstackCOMMON 007D
??_analog                     cstackCOMMON 007D
??_delay                      cstackCOMMON 0074
??_e_pulse                    cstackCOMMON 0078
??_erase                      cstackCOMMON 007B
??_g_erase                    cstackCOMMON 007B
??_lcd_clr                    cstackCOMMON 0079
??_lcd_goto                   cstackCOMMON 0079
??_location                   cstackCOMMON 007B
??_main                       cstackBANK0  002B
??_message1p                  cstackCOMMON 007B
??_message1r                  cstackCOMMON 007B
??_message2p                  cstackCOMMON 007B
??_message2r                  cstackCOMMON 007B
??_mic                        cstackCOMMON 007D
??_send_char                  cstackCOMMON 0078
??_send_config                cstackCOMMON 0078
??_send_string                cstackCOMMON 007B
??_spi_initialize             cstackCOMMON 0070
??_tmr_delay                  cstackCOMMON 0072
??_uc_send_receive_spi        cstackCOMMON 0070
?_Erase                       cstackCOMMON 0070
?_Forward                     cstackCOMMON 0070
?_Init                        cstackCOMMON 0070
?_Option                      cstackCOMMON 0070
?_Play                        cstackCOMMON 0070
?_Play_s                      cstackCOMMON 0070
?_Record                      cstackCOMMON 0070
?_Record_s                    cstackCOMMON 0070
?_Spi                         cstackCOMMON 0070
?_Stand                       cstackCOMMON 0070
?_analog                      cstackCOMMON 0070
?_delay                       cstackCOMMON 0070
?_e_pulse                     cstackCOMMON 0070
?_erase                       cstackCOMMON 0070
?_g_erase                     cstackCOMMON 0070
?_lcd_clr                     cstackCOMMON 0070
?_lcd_goto                    cstackCOMMON 0070
?_location                    cstackCOMMON 0070
?_main                        cstackCOMMON 0070
?_message1p                   cstackCOMMON 0070
?_message1r                   cstackCOMMON 0070
?_message2p                   cstackCOMMON 0070
?_message2r                   cstackCOMMON 0070
?_mic                         cstackCOMMON 0070
?_send_char                   cstackCOMMON 0070
?_send_config                 cstackCOMMON 0070
?_send_string                 cstackCOMMON 0079
?_spi_initialize              cstackCOMMON 0070
?_tmr_delay                   cstackCOMMON 0070
?_uc_send_receive_spi         cstackCOMMON 0070
Erase@i                       cstackCOMMON 007C
Option@i                      cstackCOMMON 007C
Play@i                        cstackCOMMON 007C
Record@i                      cstackBANK0  0028
Spi@i                         cstackBANK0  002A
Stand@i                       cstackBANK0  0028
_ADCON1                       (abs)        009F
_BF                           (abs)        04A0
_CKE                          (abs)        04A6
_CKP                          (abs)        00A4
_ERASE                        stringtext   1E2A
_Erase                        text729      024E
_Forward                      text737      0E64
_Init                         text742      04E1
_Option                       text727      03D1
_PORTA                        (abs)        0005
_PORTB                        (abs)        0006
_PORTD                        (abs)        0008
_PORTE                        (abs)        0009
_PS0                          (abs)        0408
_PS1                          (abs)        0409
_PS2                          (abs)        040A
_PSA                          (abs)        040B
_Play                         text728      02CF
_Play_s                       text738      0E45
_RA0                          (abs)        0028
_RC0                          (abs)        0038
_RD3                          (abs)        0043
_RD4                          (abs)        0044
_RD5                          (abs)        0045
_RD6                          (abs)        0046
_RD7                          (abs)        0047
_RE1                          (abs)        0049
_RE2                          (abs)        004A
_Record                       text722      0458
_Record_s                     text732      00F5
_SMP                          (abs)        04A7
_SPI                          stringtext   1E1F
_SSPBUF                       (abs)        0013
_SSPEN                        (abs)        00A5
_SSPM0                        (abs)        00A0
_SSPM1                        (abs)        00A1
_SSPM2                        (abs)        00A2
_SSPM3                        (abs)        00A3
_STD                          stringtext   1E12
_Spi                          text721      05FF
_Stand                        text725      0751
_T0CS                         (abs)        040D
_TMR0                         (abs)        0001
_TRISA                        (abs)        0085
_TRISB                        (abs)        0086
_TRISC                        (abs)        0087
_TRISC5                       (abs)        043D
_TRISD                        (abs)        0088
_TRISE                        (abs)        0089
_WCOL                         (abs)        00A7
__Habs1                       abs1         0000
__Hbank0                      bank0        0000
__Hbank1                      bank1        0000
__Hbank2                      bank2        0000
__Hbank3                      bank3        0000
__HbssBANK0                   bssBANK0     0000
__Hcinit                      cinit        0000
__Hclrtext                    clrtext      0000
__Hcode                       code         0000
__Hcommon                     common       0000
__Hconfig                     config       2008
__HcstackBANK0                cstackBANK0  0000
__HcstackCOMMON               cstackCOMMON 0000
__HdataBANK0                  dataBANK0    0000
__Heeprom_data                eeprom_data  0000
__Hend_init                   end_init     0003
__Hfunctab                    functab      0000
__HidataBANK0                 idataBANK0   0000
__Hidloc                      idloc        0000
__Hinit                       init         0000
__Hinittext                   inittext     0000
__Hintentry                   intentry     0000
__Hmaintext                   maintext     0000
__Hpowerup                    powerup      0000
__Hram                        ram          0000
__Hreset_vec                  reset_vec    0000
__Hsfr0                       sfr0         0000
__Hsfr1                       sfr1         0000
__Hsfr2                       sfr2         0000
__Hsfr3                       sfr3         0000
__Hstrings                    strings      0000
__Hstringtext                 stringtext   0000
__Htext                       text         0000
__Labs1                       abs1         0000
__Lbank0                      bank0        0000
__Lbank1                      bank1        0000
__Lbank2                      bank2        0000
__Lbank3                      bank3        0000
__LbssBANK0                   bssBANK0     0000
__Lcinit                      cinit        0000
__Lclrtext                    clrtext      0000
__Lcode                       code         0000
__Lcommon                     common       0000
__Lconfig                     config       2007
__LcstackBANK0                cstackBANK0  0000
__LcstackCOMMON               cstackCOMMON 0000
__LdataBANK0                  dataBANK0    0000
__Leeprom_data                eeprom_data  0000
__Lend_init                   end_init     0000
__Lfunctab                    functab      0000
__LidataBANK0                 idataBANK0   0000
__Lidloc                      idloc        0000
__Linit                       init         0000
__Linittext                   inittext     0000
__Lintentry                   intentry     0000
__Lmaintext                   maintext     0000
__Lpowerup                    powerup      0000
__Lram                        ram          0000
__Lreset_vec                  reset_vec    0000
__Lsfr0                       sfr0         0000
__Lsfr1                       sfr1         0000
__Lsfr2                       sfr2         0000
__Lsfr3                       sfr3         0000
__Lstrings                    strings      0000
__Lstringtext                 stringtext   0000
__Ltext                       text         0000
__S0                          (abs)        2008
__S1                          (abs)        007E
__S2                          (abs)        0000
__end_of_Erase                text729      02CF
__end_of_Forward              text737      0E83
__end_of_Init                 text742      056B
__end_of_Option               text727      0458
__end_of_Play                 text728      0350
__end_of_Play_s               text738      0E64
__end_of_Record               text722      04E1
__end_of_Record_s             text732      0166
__end_of_Spi                  text721      06A4
__end_of_Stand                text725      0800
__end_of_analog               text723      05FF
__end_of_delay                text746      0EF6
__end_of_e_pulse              text745      0EA4
__end_of_erase                text730      1000
__end_of_g_erase              text731      0FB3
__end_of_lcd_clr              text741      0DE1
__end_of_lcd_goto             text740      0E45
__end_of_location             text726      03D1
__end_of_main                 maintext     0751
__end_of_message1p            text735      00F5
__end_of_message1r            text733      024E
__end_of_message2p            text736      0084
__end_of_message2r            text734      01DA
__end_of_mic                  text724      0F66
__end_of_send_char            text743      0E28
__end_of_send_config          text744      0E0F
__end_of_send_string          text739      0F27
__end_of_spi_initialize       text749      0013
__end_of_tmr_delay            text747      0EC6
__end_of_uc_send_receive_spi  text748      0DCD
__pbssBANK0                   bssBANK0     002D
__pcstackBANK0                cstackBANK0  0028
__pcstackCOMMON               cstackCOMMON 0070
__pdataBANK0                  dataBANK0    0020
__pidataBANK0                 idataBANK0   0DA2
__pmaintext                   maintext     06A4
__pstringtext                 stringtext   1E00
__ptext721                    text721      05FF
__ptext722                    text722      0458
__ptext723                    text723      056B
__ptext724                    text724      0F27
__ptext725                    text725      0751
__ptext726                    text726      0350
__ptext727                    text727      03D1
__ptext728                    text728      02CF
__ptext729                    text729      024E
__ptext730                    text730      0FB3
__ptext731                    text731      0F66
__ptext732                    text732      00F5
__ptext733                    text733      01DA
__ptext734                    text734      0166
__ptext735                    text735      0084
__ptext736                    text736      0013
__ptext737                    text737      0E64
__ptext738                    text738      0E45
__ptext739                    text739      0EF6
__ptext740                    text740      0E28
__ptext741                    text741      0DCD
__ptext742                    text742      04E1
__ptext743                    text743      0E0F
__ptext744                    text744      0DF6
__ptext745                    text745      0E83
__ptext746                    text746      0EC6
__ptext747                    text747      0EA4
__ptext748                    text748      0DBB
__ptext749                    text749      0004
__ptext750                    text750      0000
__size_of_Erase               (abs)        0000
__size_of_Forward             (abs)        0000
__size_of_Init                (abs)        0000
__size_of_Option              (abs)        0000
__size_of_Play                (abs)        0000
__size_of_Play_s              (abs)        0000
__size_of_Record              (abs)        0000
__size_of_Record_s            (abs)        0000
__size_of_Spi                 (abs)        0000
__size_of_Stand               (abs)        0000
__size_of_analog              (abs)        0000
__size_of_delay               (abs)        0000
__size_of_e_pulse             (abs)        0000
__size_of_erase               (abs)        0000
__size_of_g_erase             (abs)        0000
__size_of_lcd_clr             (abs)        0000
__size_of_lcd_goto            (abs)        0000
__size_of_location            (abs)        0000
__size_of_main                (abs)        0000
__size_of_message1p           (abs)        0000
__size_of_message1r           (abs)        0000
__size_of_message2p           (abs)        0000
__size_of_message2r           (abs)        0000
__size_of_mic                 (abs)        0000
__size_of_send_char           (abs)        0000
__size_of_send_config         (abs)        0000
__size_of_send_string         (abs)        0000
__size_of_spi_initialize      (abs)        0000
__size_of_tmr_delay           (abs)        0000
__size_of_uc_send_receive_spi (abs)        0000
_analog                       text723      056B
_delay                        text746      0EC6
_e_pulse                      text745      0E83
_erase                        text730      0FB3
_exit                         init         0000
_g_erase                      text731      0F66
_lcd_clr                      text741      0DCD
_lcd_goto                     text740      0E28
_location                     text726      0350
_main                         maintext     06A4
_message1p                    text735      0084
_message1r                    text733      01DA
_message2p                    text736      0013
_message2r                    text734      0166
_mic                          text724      0F27
_mode                         dataBANK0    0020
_msg                          bssBANK0     002D
_pointer                      bssBANK0     002E
_send_char                    text743      0E0F
_send_config                  text744      0DF6
_send_string                  text739      0EF6
_spi_initialize               text749      0004
_status                       bssBANK0     002F
_tmr_delay                    text747      0EA4
_uc_send_receive_spi          text748      0DBB
btemp                         (abs)        007E
delay@data                    cstackCOMMON 0070
end_of_initialization         cinit        0DF2
init_fetch                    inittext     0DAA
init_ram                      inittext     0DAE
intlevel0                     functab      0000
intlevel1                     functab      0000
intlevel2                     functab      0000
intlevel3                     functab      0000
intlevel4                     functab      0000
intlevel5                     functab      0000
lcd_goto@data                 cstackCOMMON 007A
location@i                    cstackCOMMON 007C
main@j                        cstackBANK0  002C
reset_vec                     reset_vec    0000
send_char@data                cstackCOMMON 0078
send_config@data              cstackCOMMON 0078
send_string@s                 cstackCOMMON 0079
start                         init         0000
start_initialization          cinit        0DE1
tmr_delay@lenght              cstackCOMMON 0070
uc_send_receive_spi@uc_data   cstackCOMMON 0070
wtemp0                        (abs)        007E
